
========================================================================

** ELF Header Information

    File Name: .\obj\template.axf

    Machine class: ELFCLASS32 (32-bit)
    Data encoding: ELFDATA2LSB (Little endian)
    Header version: EV_CURRENT (Current version)
    Operating System ABI: none
    ABI Version: 0
    File Type: ET_EXEC (Executable) (2)
    Machine: EM_ARM (ARM)

    Image Entry point: 0x000000f1
    Flags: EF_ARM_HASENTRY + EF_ARM_ABI_FLOAT_SOFT (0x05000202)

    ARM ELF revision: 5 (ABI version 2)

    Conforms to Soft float procedure-call standard

    Built with
    Component: ARM Compiler 5.06 update 6 (build 750) Tool: armasm [4d35ec]
    Component: ARM Compiler 5.06 update 6 (build 750) Tool: armlink [4d35ed]

    Header size: 52 bytes (0x34)
    Program header entry size: 32 bytes (0x20)
    Section header entry size: 40 bytes (0x28)

    Program header entries: 1
    Section header entries: 16

    Program header offset: 242952 (0x0003b508)
    Section header offset: 242984 (0x0003b528)

    Section header string table index: 15

========================================================================

** Program header #0 (PT_LOAD) [PF_X + PF_W + PF_R + PF_ARM_ENTRY]
    Size : 9440 bytes (8656 bytes in file)
    Virtual address: 0x00000000 (Alignment 8)


========================================================================

** Section #1 'ER_RO' (SHT_PROGBITS) [SHF_ALLOC + SHF_EXECINSTR]
    Size   : 8616 bytes (alignment 4)
    Address: 0x00000000

    $d.realdata
    RESET
    __Vectors
        0x00000000:    20000338    8..     DCD    536871736
        0x00000004:    000000f1    ....    DCD    241
        0x00000008:    00000117    ....    DCD    279
        0x0000000c:    000000d5    ....    DCD    213
        0x00000010:    00000000    ....    DCD    0
        0x00000014:    00000000    ....    DCD    0
        0x00000018:    00000000    ....    DCD    0
        0x0000001c:    00000000    ....    DCD    0
        0x00000020:    00000000    ....    DCD    0
        0x00000024:    00000000    ....    DCD    0
        0x00000028:    00000000    ....    DCD    0
        0x0000002c:    0000011b    ....    DCD    283
        0x00000030:    00000000    ....    DCD    0
        0x00000034:    00000000    ....    DCD    0
        0x00000038:    0000011d    ....    DCD    285
        0x0000003c:    0000011f    ....    DCD    287
        0x00000040:    00000121    !...    DCD    289
        0x00000044:    00000121    !...    DCD    289
        0x00000048:    00000121    !...    DCD    289
        0x0000004c:    00000121    !...    DCD    289
        0x00000050:    00000121    !...    DCD    289
        0x00000054:    00000121    !...    DCD    289
        0x00000058:    00000121    !...    DCD    289
        0x0000005c:    00000121    !...    DCD    289
        0x00000060:    00000121    !...    DCD    289
        0x00000064:    000012e9    ....    DCD    4841
        0x00000068:    00000121    !...    DCD    289
        0x0000006c:    000012f9    ....    DCD    4857
        0x00000070:    00001355    U...    DCD    4949
        0x00000074:    00000121    !...    DCD    289
        0x00000078:    00000121    !...    DCD    289
        0x0000007c:    00000121    !...    DCD    289
        0x00000080:    00000121    !...    DCD    289
        0x00000084:    00000121    !...    DCD    289
        0x00000088:    00000121    !...    DCD    289
        0x0000008c:    00000121    !...    DCD    289
        0x00000090:    00000121    !...    DCD    289
        0x00000094:    00000121    !...    DCD    289
        0x00000098:    00000121    !...    DCD    289
        0x0000009c:    00000121    !...    DCD    289
        0x000000a0:    00000121    !...    DCD    289
        0x000000a4:    00000121    !...    DCD    289
        0x000000a8:    00000a21    !...    DCD    2593
        0x000000ac:    00000121    !...    DCD    289
        0x000000b0:    00000121    !...    DCD    289
        0x000000b4:    00000121    !...    DCD    289
        0x000000b8:    00000121    !...    DCD    289
        0x000000bc:    00000121    !...    DCD    289
    $t
    .ARM.Collect$$$$00000000
    .ARM.Collect$$$$00000001
    __main
    _main_stk
        0x000000c0:    4803        .H      LDR      r0,__lit__00000000 ; [0xd0] = 0x20000338
        0x000000c2:    4685        .F      MOV      sp,r0
    .ARM.Collect$$$$00000004
    _main_scatterload
        0x000000c4:    f000fae0    ....    BL       __scatterload ; 0x688
    .ARM.Collect$$$$00000008
    .ARM.Collect$$$$0000000A
    .ARM.Collect$$$$0000000B
    __main_after_scatterload
    _main_clock
    _main_cpp_init
    _main_init
        0x000000c8:    4800        .H      LDR      r0,[pc,#0] ; [0xcc] = 0x2005
        0x000000ca:    4700        .G      BX       r0
    $d
        0x000000cc:    00002005    . ..    DCD    8197
    .ARM.Collect$$$$00002712
    __lit__00000000
    .ARM.Collect$$$$0000000D
    .ARM.Collect$$$$0000000F
    __rt_final_cpp
    __rt_final_exit
        0x000000d0:    20000338    8..     DCD    536871736
    $t
    .emb_text
    HardFault_Handler
        0x000000d4:    2004        .       MOVS     r0,#4
        0x000000d6:    4671        qF      MOV      r1,lr
        0x000000d8:    4208        .B      TST      r0,r1
        0x000000da:    d002        ..      BEQ      0xe2 ; HardFault_Handler + 14
        0x000000dc:    f3ef8009    ....    MRS      r0,PSP
        0x000000e0:    e001        ..      B        0xe6 ; HardFault_Handler + 18
        0x000000e2:    f3ef8008    ....    MRS      r0,MSP
        0x000000e6:    4671        qF      MOV      r1,lr
        0x000000e8:    4a00        .J      LDR      r2,[pc,#0] ; [0xec] = 0x9a9
        0x000000ea:    4710        .G      BX       r2
    $d
        0x000000ec:    000009a9    ....    DCD    2473
    $t
    .text
    Reset_Handler
        0x000000f0:    480c        .H      LDR      r0,[pc,#48] ; [0x124] = 0x40000100
        0x000000f2:    490d        .I      LDR      r1,[pc,#52] ; [0x128] = 0x59
        0x000000f4:    6001        .`      STR      r1,[r0,#0]
        0x000000f6:    490d        .I      LDR      r1,[pc,#52] ; [0x12c] = 0x16
        0x000000f8:    6001        .`      STR      r1,[r0,#0]
        0x000000fa:    490d        .I      LDR      r1,[pc,#52] ; [0x130] = 0x88
        0x000000fc:    6001        .`      STR      r1,[r0,#0]
        0x000000fe:    4a0d        .J      LDR      r2,[pc,#52] ; [0x134] = 0x40000024
        0x00000100:    490d        .I      LDR      r1,[pc,#52] ; [0x138] = 0x5aa5
        0x00000102:    6011        .`      STR      r1,[r2,#0]
        0x00000104:    4a0d        .J      LDR      r2,[pc,#52] ; [0x13c] = 0x40000280
        0x00000106:    490e        .I      LDR      r1,[pc,#56] ; [0x140] = 0x1
        0x00000108:    6011        .`      STR      r1,[r2,#0]
        0x0000010a:    2100        .!      MOVS     r1,#0
        0x0000010c:    6001        .`      STR      r1,[r0,#0]
        0x0000010e:    480d        .H      LDR      r0,[pc,#52] ; [0x144] = 0x1199
        0x00000110:    4780        .G      BLX      r0
        0x00000112:    480d        .H      LDR      r0,[pc,#52] ; [0x148] = 0xc1
        0x00000114:    4700        .G      BX       r0
    NMI_Handler
        0x00000116:    e7fe        ..      B        NMI_Handler ; 0x116
        0x00000118:    e7fe        ..      B        0x118 ; NMI_Handler + 2
    SVC_Handler
        0x0000011a:    e7fe        ..      B        SVC_Handler ; 0x11a
    PendSV_Handler
        0x0000011c:    e7fe        ..      B        PendSV_Handler ; 0x11c
    SysTick_Handler
        0x0000011e:    e7fe        ..      B        SysTick_Handler ; 0x11e
    Default_Handler
    ACMP01_IRQHandler
    ADC_IRQHandler
    BOD_IRQHandler
    BPWM0_IRQHandler
    BPWM1_IRQHandler
    CKFAIL_IRQHandler
    EINT024_IRQHandler
    EINT135_IRQHandler
    GPABGH_IRQHandler
    GPCDEF_IRQHandler
    I2C0_IRQHandler
    I2C1_IRQHandler
    ISP_IRQHandler
    PWM0_IRQHandler
    PWM1_IRQHandler
    PWRWU_IRQHandler
    QSPI0_IRQHandler
    RTC_IRQHandler
    SPI0_IRQHandler
    TMR0_IRQHandler
    TMR2_IRQHandler
    UART13_IRQHandler
    UART46_IRQHandler
    UART57_IRQHandler
    USBD_IRQHandler
    USCI01_IRQHandler
    WDT_IRQHandler
        0x00000120:    e7fe        ..      B        Default_Handler ; 0x120
    $d
        0x00000122:    0000        ..      DCW    0
        0x00000124:    40000100    ...@    DCD    1073742080
        0x00000128:    00000059    Y...    DCD    89
        0x0000012c:    00000016    ....    DCD    22
        0x00000130:    00000088    ....    DCD    136
        0x00000134:    40000024    $..@    DCD    1073741860
        0x00000138:    00005aa5    .Z..    DCD    23205
        0x0000013c:    40000280    ...@    DCD    1073742464
        0x00000140:    00000001    ....    DCD    1
        0x00000144:    00001199    ....    DCD    4505
        0x00000148:    000000c1    ....    DCD    193
    $t
    .text
    __aeabi_uidiv
    __aeabi_uidivmod
        0x0000014c:    b530        0.      PUSH     {r4,r5,lr}
        0x0000014e:    460b        .F      MOV      r3,r1
        0x00000150:    4601        .F      MOV      r1,r0
        0x00000152:    2000        .       MOVS     r0,#0
        0x00000154:    2220         "      MOVS     r2,#0x20
        0x00000156:    2401        .$      MOVS     r4,#1
        0x00000158:    e009        ..      B        0x16e ; __aeabi_uidiv + 34
        0x0000015a:    460d        .F      MOV      r5,r1
        0x0000015c:    40d5        .@      LSRS     r5,r5,r2
        0x0000015e:    429d        .B      CMP      r5,r3
        0x00000160:    d305        ..      BCC      0x16e ; __aeabi_uidiv + 34
        0x00000162:    461d        .F      MOV      r5,r3
        0x00000164:    4095        .@      LSLS     r5,r5,r2
        0x00000166:    1b49        I.      SUBS     r1,r1,r5
        0x00000168:    4625        %F      MOV      r5,r4
        0x0000016a:    4095        .@      LSLS     r5,r5,r2
        0x0000016c:    1940        @.      ADDS     r0,r0,r5
        0x0000016e:    4615        .F      MOV      r5,r2
        0x00000170:    1e52        R.      SUBS     r2,r2,#1
        0x00000172:    2d00        .-      CMP      r5,#0
        0x00000174:    dcf1        ..      BGT      0x15a ; __aeabi_uidiv + 14
        0x00000176:    bd30        0.      POP      {r4,r5,pc}
    .text
    __aeabi_memcpy
    __aeabi_memcpy4
    __aeabi_memcpy8
        0x00000178:    4603        .F      MOV      r3,r0
        0x0000017a:    430b        .C      ORRS     r3,r3,r1
        0x0000017c:    079b        ..      LSLS     r3,r3,#30
        0x0000017e:    d003        ..      BEQ      0x188 ; __aeabi_memcpy + 16
        0x00000180:    e009        ..      B        0x196 ; __aeabi_memcpy + 30
        0x00000182:    c908        ..      LDM      r1!,{r3}
        0x00000184:    1f12        ..      SUBS     r2,r2,#4
        0x00000186:    c008        ..      STM      r0!,{r3}
        0x00000188:    2a04        .*      CMP      r2,#4
        0x0000018a:    d2fa        ..      BCS      0x182 ; __aeabi_memcpy + 10
        0x0000018c:    e003        ..      B        0x196 ; __aeabi_memcpy + 30
        0x0000018e:    780b        .x      LDRB     r3,[r1,#0]
        0x00000190:    7003        .p      STRB     r3,[r0,#0]
        0x00000192:    1c40        @.      ADDS     r0,r0,#1
        0x00000194:    1c49        I.      ADDS     r1,r1,#1
        0x00000196:    1e52        R.      SUBS     r2,r2,#1
        0x00000198:    d2f9        ..      BCS      0x18e ; __aeabi_memcpy + 22
        0x0000019a:    4770        pG      BX       lr
    .text
    __aeabi_memset
    __aeabi_memset4
    __aeabi_memset8
        0x0000019c:    b2d2        ..      UXTB     r2,r2
        0x0000019e:    e001        ..      B        0x1a4 ; __aeabi_memset + 8
        0x000001a0:    7002        .p      STRB     r2,[r0,#0]
        0x000001a2:    1c40        @.      ADDS     r0,r0,#1
        0x000001a4:    1e49        I.      SUBS     r1,r1,#1
        0x000001a6:    d2fb        ..      BCS      0x1a0 ; __aeabi_memset + 4
        0x000001a8:    4770        pG      BX       lr
    __aeabi_memclr
    __aeabi_memclr4
    __aeabi_memclr8
        0x000001aa:    2200        ."      MOVS     r2,#0
        0x000001ac:    e7f6        ..      B        __aeabi_memset ; 0x19c
    _memset$wrapper
        0x000001ae:    b510        ..      PUSH     {r4,lr}
        0x000001b0:    4613        .F      MOV      r3,r2
        0x000001b2:    460a        .F      MOV      r2,r1
        0x000001b4:    4604        .F      MOV      r4,r0
        0x000001b6:    4619        .F      MOV      r1,r3
        0x000001b8:    f7fffff0    ....    BL       __aeabi_memset ; 0x19c
        0x000001bc:    4620         F      MOV      r0,r4
        0x000001be:    bd10        ..      POP      {r4,pc}
    .text
    __aeabi_ddiv
        0x000001c0:    b5f0        ..      PUSH     {r4-r7,lr}
        0x000001c2:    460c        .F      MOV      r4,r1
        0x000001c4:    405c        \@      EORS     r4,r4,r3
        0x000001c6:    b085        ..      SUB      sp,sp,#0x14
        0x000001c8:    0fe4        ..      LSRS     r4,r4,#31
        0x000001ca:    07e4        ..      LSLS     r4,r4,#31
        0x000001cc:    9403        ..      STR      r4,[sp,#0xc]
        0x000001ce:    004c        L.      LSLS     r4,r1,#1
        0x000001d0:    2600        .&      MOVS     r6,#0
        0x000001d2:    0864        d.      LSRS     r4,r4,#1
        0x000001d4:    0059        Y.      LSLS     r1,r3,#1
        0x000001d6:    4694        .F      MOV      r12,r2
        0x000001d8:    0849        I.      LSRS     r1,r1,#1
        0x000001da:    4602        .F      MOV      r2,r0
        0x000001dc:    9602        ..      STR      r6,[sp,#8]
        0x000001de:    4322        "C      ORRS     r2,r2,r4
        0x000001e0:    d021        !.      BEQ      0x226 ; __aeabi_ddiv + 102
        0x000001e2:    4662        bF      MOV      r2,r12
        0x000001e4:    430a        .C      ORRS     r2,r2,r1
        0x000001e6:    d01e        ..      BEQ      0x226 ; __aeabi_ddiv + 102
        0x000001e8:    0062        b.      LSLS     r2,r4,#1
        0x000001ea:    0d57        W.      LSRS     r7,r2,#21
        0x000001ec:    004a        J.      LSLS     r2,r1,#1
        0x000001ee:    030e        ..      LSLS     r6,r1,#12
        0x000001f0:    0323        #.      LSLS     r3,r4,#12
        0x000001f2:    0d55        U.      LSRS     r5,r2,#21
        0x000001f4:    2401        .$      MOVS     r4,#1
        0x000001f6:    4602        .F      MOV      r2,r0
        0x000001f8:    492c        ,I      LDR      r1,[pc,#176] ; [0x2ac] = 0x3fd
        0x000001fa:    0524        $.      LSLS     r4,r4,#20
        0x000001fc:    1b78        x.      SUBS     r0,r7,r5
        0x000001fe:    0b1b        ..      LSRS     r3,r3,#12
        0x00000200:    0b36        6.      LSRS     r6,r6,#12
        0x00000202:    1840        @.      ADDS     r0,r0,r1
        0x00000204:    4323        #C      ORRS     r3,r3,r4
        0x00000206:    4326        &C      ORRS     r6,r6,r4
        0x00000208:    4661        aF      MOV      r1,r12
        0x0000020a:    9000        ..      STR      r0,[sp,#0]
        0x0000020c:    461c        .F      MOV      r4,r3
        0x0000020e:    1a50        P.      SUBS     r0,r2,r1
        0x00000210:    41b4        .A      SBCS     r4,r4,r6
        0x00000212:    d303        ..      BCC      0x21c ; __aeabi_ddiv + 92
        0x00000214:    9800        ..      LDR      r0,[sp,#0]
        0x00000216:    1c40        @.      ADDS     r0,r0,#1
        0x00000218:    9000        ..      STR      r0,[sp,#0]
        0x0000021a:    e002        ..      B        0x222 ; __aeabi_ddiv + 98
        0x0000021c:    1892        ..      ADDS     r2,r2,r2
        0x0000021e:    9800        ..      LDR      r0,[sp,#0]
        0x00000220:    415b        [A      ADCS     r3,r3,r3
        0x00000222:    2800        .(      CMP      r0,#0
        0x00000224:    da03        ..      BGE      0x22e ; __aeabi_ddiv + 110
        0x00000226:    2000        .       MOVS     r0,#0
        0x00000228:    4601        .F      MOV      r1,r0
        0x0000022a:    b005        ..      ADD      sp,sp,#0x14
        0x0000022c:    bdf0        ..      POP      {r4-r7,pc}
        0x0000022e:    2000        .       MOVS     r0,#0
        0x00000230:    2101        .!      MOVS     r1,#1
        0x00000232:    0509        ..      LSLS     r1,r1,#20
        0x00000234:    4607        .F      MOV      r7,r0
        0x00000236:    4686        .F      MOV      lr,r0
        0x00000238:    e011        ..      B        0x25e ; __aeabi_ddiv + 158
        0x0000023a:    4664        dF      MOV      r4,r12
        0x0000023c:    461d        .F      MOV      r5,r3
        0x0000023e:    1b14        ..      SUBS     r4,r2,r4
        0x00000240:    41b5        .A      SBCS     r5,r5,r6
        0x00000242:    d306        ..      BCC      0x252 ; __aeabi_ddiv + 146
        0x00000244:    4665        eF      MOV      r5,r12
        0x00000246:    1b52        R.      SUBS     r2,r2,r5
        0x00000248:    41b3        .A      SBCS     r3,r3,r6
        0x0000024a:    4674        tF      MOV      r4,lr
        0x0000024c:    4307        .C      ORRS     r7,r7,r0
        0x0000024e:    430c        .C      ORRS     r4,r4,r1
        0x00000250:    46a6        .F      MOV      lr,r4
        0x00000252:    07cd        ..      LSLS     r5,r1,#31
        0x00000254:    0840        @.      LSRS     r0,r0,#1
        0x00000256:    0849        I.      LSRS     r1,r1,#1
        0x00000258:    4328        (C      ORRS     r0,r0,r5
        0x0000025a:    1892        ..      ADDS     r2,r2,r2
        0x0000025c:    415b        [A      ADCS     r3,r3,r3
        0x0000025e:    4605        .F      MOV      r5,r0
        0x00000260:    430d        .C      ORRS     r5,r5,r1
        0x00000262:    d1ea        ..      BNE      0x23a ; __aeabi_ddiv + 122
        0x00000264:    4610        .F      MOV      r0,r2
        0x00000266:    4318        .C      ORRS     r0,r0,r3
        0x00000268:    d013        ..      BEQ      0x292 ; __aeabi_ddiv + 210
        0x0000026a:    4660        `F      MOV      r0,r12
        0x0000026c:    4619        .F      MOV      r1,r3
        0x0000026e:    4050        P@      EORS     r0,r0,r2
        0x00000270:    4071        q@      EORS     r1,r1,r6
        0x00000272:    4308        .C      ORRS     r0,r0,r1
        0x00000274:    d006        ..      BEQ      0x284 ; __aeabi_ddiv + 196
        0x00000276:    4660        `F      MOV      r0,r12
        0x00000278:    1a10        ..      SUBS     r0,r2,r0
        0x0000027a:    41b3        .A      SBCS     r3,r3,r6
        0x0000027c:    d206        ..      BCS      0x28c ; __aeabi_ddiv + 204
        0x0000027e:    2201        ."      MOVS     r2,#1
        0x00000280:    2300        .#      MOVS     r3,#0
        0x00000282:    e006        ..      B        0x292 ; __aeabi_ddiv + 210
        0x00000284:    2200        ."      MOVS     r2,#0
        0x00000286:    2301        .#      MOVS     r3,#1
        0x00000288:    07db        ..      LSLS     r3,r3,#31
        0x0000028a:    e002        ..      B        0x292 ; __aeabi_ddiv + 210
        0x0000028c:    2201        ."      MOVS     r2,#1
        0x0000028e:    43d2        .C      MVNS     r2,r2
        0x00000290:    1053        S.      ASRS     r3,r2,#1
        0x00000292:    9800        ..      LDR      r0,[sp,#0]
        0x00000294:    4674        tF      MOV      r4,lr
        0x00000296:    0501        ..      LSLS     r1,r0,#20
        0x00000298:    1c38        8.      ADDS     r0,r7,#0
        0x0000029a:    4161        aA      ADCS     r1,r1,r4
        0x0000029c:    9c02        ..      LDR      r4,[sp,#8]
        0x0000029e:    9d03        ..      LDR      r5,[sp,#0xc]
        0x000002a0:    1900        ..      ADDS     r0,r0,r4
        0x000002a2:    4169        iA      ADCS     r1,r1,r5
        0x000002a4:    f000f842    ..B.    BL       __I$use$fp ; 0x32c
        0x000002a8:    e7bf        ..      B        0x22a ; __aeabi_ddiv + 106
    $d
        0x000002aa:    0000        ..      DCW    0
        0x000002ac:    000003fd    ....    DCD    1021
    $t
    .text
    __aeabi_ui2d
        0x000002b0:    b50e        ..      PUSH     {r1-r3,lr}
        0x000002b2:    4905        .I      LDR      r1,[pc,#20] ; [0x2c8] = 0x433
        0x000002b4:    9102        ..      STR      r1,[sp,#8]
        0x000002b6:    2100        .!      MOVS     r1,#0
        0x000002b8:    9100        ..      STR      r1,[sp,#0]
        0x000002ba:    460a        .F      MOV      r2,r1
        0x000002bc:    460b        .F      MOV      r3,r1
        0x000002be:    9101        ..      STR      r1,[sp,#4]
        0x000002c0:    f000f841    ..A.    BL       _double_epilogue ; 0x346
        0x000002c4:    b003        ..      ADD      sp,sp,#0xc
        0x000002c6:    bd00        ..      POP      {pc}
    $d
        0x000002c8:    00000433    3...    DCD    1075
    $t
    .text
    __aeabi_uldivmod
        0x000002cc:    b5f0        ..      PUSH     {r4-r7,lr}
        0x000002ce:    b41f        ..      PUSH     {r0-r4}
        0x000002d0:    4606        .F      MOV      r6,r0
        0x000002d2:    2000        .       MOVS     r0,#0
        0x000002d4:    b082        ..      SUB      sp,sp,#8
        0x000002d6:    4605        .F      MOV      r5,r0
        0x000002d8:    2440        @$      MOVS     r4,#0x40
        0x000002da:    9101        ..      STR      r1,[sp,#4]
        0x000002dc:    9000        ..      STR      r0,[sp,#0]
        0x000002de:    e01b        ..      B        0x318 ; __aeabi_uldivmod + 76
        0x000002e0:    9901        ..      LDR      r1,[sp,#4]
        0x000002e2:    4622        "F      MOV      r2,r4
        0x000002e4:    460f        .F      MOV      r7,r1
        0x000002e6:    4630        0F      MOV      r0,r6
        0x000002e8:    f000f9f0    ....    BL       __aeabi_llsr ; 0x6cc
        0x000002ec:    9a04        ..      LDR      r2,[sp,#0x10]
        0x000002ee:    9b05        ..      LDR      r3,[sp,#0x14]
        0x000002f0:    1a80        ..      SUBS     r0,r0,r2
        0x000002f2:    4199        .A      SBCS     r1,r1,r3
        0x000002f4:    d310        ..      BCC      0x318 ; __aeabi_uldivmod + 76
        0x000002f6:    4610        .F      MOV      r0,r2
        0x000002f8:    4619        .F      MOV      r1,r3
        0x000002fa:    4622        "F      MOV      r2,r4
        0x000002fc:    f000f9d6    ....    BL       __aeabi_llsl ; 0x6ac
        0x00000300:    1a36        6.      SUBS     r6,r6,r0
        0x00000302:    418f        .A      SBCS     r7,r7,r1
        0x00000304:    9701        ..      STR      r7,[sp,#4]
        0x00000306:    4622        "F      MOV      r2,r4
        0x00000308:    2001        .       MOVS     r0,#1
        0x0000030a:    2100        .!      MOVS     r1,#0
        0x0000030c:    9f00        ..      LDR      r7,[sp,#0]
        0x0000030e:    f000f9cd    ....    BL       __aeabi_llsl ; 0x6ac
        0x00000312:    1838        8.      ADDS     r0,r7,r0
        0x00000314:    414d        MA      ADCS     r5,r5,r1
        0x00000316:    9000        ..      STR      r0,[sp,#0]
        0x00000318:    4620         F      MOV      r0,r4
        0x0000031a:    1e64        d.      SUBS     r4,r4,#1
        0x0000031c:    2800        .(      CMP      r0,#0
        0x0000031e:    dcdf        ..      BGT      0x2e0 ; __aeabi_uldivmod + 20
        0x00000320:    9b01        ..      LDR      r3,[sp,#4]
        0x00000322:    9800        ..      LDR      r0,[sp,#0]
        0x00000324:    4629        )F      MOV      r1,r5
        0x00000326:    4632        2F      MOV      r2,r6
        0x00000328:    b007        ..      ADD      sp,sp,#0x1c
        0x0000032a:    bdf0        ..      POP      {r4-r7,pc}
    .text
    .text
    __I$use$fp
    _double_round
        0x0000032c:    b510        ..      PUSH     {r4,lr}
        0x0000032e:    2b00        .+      CMP      r3,#0
        0x00000330:    da08        ..      BGE      0x344 ; __I$use$fp + 24
        0x00000332:    2400        .$      MOVS     r4,#0
        0x00000334:    1c40        @.      ADDS     r0,r0,#1
        0x00000336:    4161        aA      ADCS     r1,r1,r4
        0x00000338:    1892        ..      ADDS     r2,r2,r2
        0x0000033a:    415b        [A      ADCS     r3,r3,r3
        0x0000033c:    431a        .C      ORRS     r2,r2,r3
        0x0000033e:    d101        ..      BNE      0x344 ; __I$use$fp + 24
        0x00000340:    0840        @.      LSRS     r0,r0,#1
        0x00000342:    0040        @.      LSLS     r0,r0,#1
        0x00000344:    bd10        ..      POP      {r4,pc}
    _double_epilogue
        0x00000346:    b5f0        ..      PUSH     {r4-r7,lr}
        0x00000348:    b41f        ..      PUSH     {r0-r4}
        0x0000034a:    b082        ..      SUB      sp,sp,#8
        0x0000034c:    4605        .F      MOV      r5,r0
        0x0000034e:    000c        ..      MOVS     r4,r1
        0x00000350:    d003        ..      BEQ      0x35a ; _double_epilogue + 20
        0x00000352:    4608        .F      MOV      r0,r1
        0x00000354:    f001f9c6    ....    BL       __ARM_clz ; 0x16e4
        0x00000358:    e002        ..      B        0x360 ; _double_epilogue + 26
        0x0000035a:    f001f9c3    ....    BL       __ARM_clz ; 0x16e4
        0x0000035e:    3020         0      ADDS     r0,r0,#0x20
        0x00000360:    4602        .F      MOV      r2,r0
        0x00000362:    9000        ..      STR      r0,[sp,#0]
        0x00000364:    4621        !F      MOV      r1,r4
        0x00000366:    4628        (F      MOV      r0,r5
        0x00000368:    f000f9a0    ....    BL       __aeabi_llsl ; 0x6ac
        0x0000036c:    9b04        ..      LDR      r3,[sp,#0x10]
        0x0000036e:    9a05        ..      LDR      r2,[sp,#0x14]
        0x00000370:    4604        .F      MOV      r4,r0
        0x00000372:    460f        .F      MOV      r7,r1
        0x00000374:    4318        .C      ORRS     r0,r0,r3
        0x00000376:    4311        .C      ORRS     r1,r1,r2
        0x00000378:    4308        .C      ORRS     r0,r0,r1
        0x0000037a:    d014        ..      BEQ      0x3a6 ; _double_epilogue + 96
        0x0000037c:    4618        .F      MOV      r0,r3
        0x0000037e:    4310        .C      ORRS     r0,r0,r2
        0x00000380:    d01b        ..      BEQ      0x3ba ; _double_epilogue + 116
        0x00000382:    9800        ..      LDR      r0,[sp,#0]
        0x00000384:    2140        @!      MOVS     r1,#0x40
        0x00000386:    1a0a        ..      SUBS     r2,r1,r0
        0x00000388:    4618        .F      MOV      r0,r3
        0x0000038a:    9905        ..      LDR      r1,[sp,#0x14]
        0x0000038c:    f000f99e    ....    BL       __aeabi_llsr ; 0x6cc
        0x00000390:    4605        .F      MOV      r5,r0
        0x00000392:    460e        .F      MOV      r6,r1
        0x00000394:    9a00        ..      LDR      r2,[sp,#0]
        0x00000396:    9905        ..      LDR      r1,[sp,#0x14]
        0x00000398:    9804        ..      LDR      r0,[sp,#0x10]
        0x0000039a:    f000f987    ....    BL       __aeabi_llsl ; 0x6ac
        0x0000039e:    4308        .C      ORRS     r0,r0,r1
        0x000003a0:    d005        ..      BEQ      0x3ae ; _double_epilogue + 104
        0x000003a2:    2001        .       MOVS     r0,#1
        0x000003a4:    e004        ..      B        0x3b0 ; _double_epilogue + 106
        0x000003a6:    4620         F      MOV      r0,r4
        0x000003a8:    4639        9F      MOV      r1,r7
        0x000003aa:    b007        ..      ADD      sp,sp,#0x1c
        0x000003ac:    bdf0        ..      POP      {r4-r7,pc}
        0x000003ae:    2000        .       MOVS     r0,#0
        0x000003b0:    17c1        ..      ASRS     r1,r0,#31
        0x000003b2:    4305        .C      ORRS     r5,r5,r0
        0x000003b4:    430e        .C      ORRS     r6,r6,r1
        0x000003b6:    432c        ,C      ORRS     r4,r4,r5
        0x000003b8:    4337        7C      ORRS     r7,r7,r6
        0x000003ba:    9900        ..      LDR      r1,[sp,#0]
        0x000003bc:    980e        ..      LDR      r0,[sp,#0x38]
        0x000003be:    0563        c.      LSLS     r3,r4,#21
        0x000003c0:    1a40        @.      SUBS     r0,r0,r1
        0x000003c2:    0579        y.      LSLS     r1,r7,#21
        0x000003c4:    0ae4        ..      LSRS     r4,r4,#11
        0x000003c6:    2200        ."      MOVS     r2,#0
        0x000003c8:    430c        .C      ORRS     r4,r4,r1
        0x000003ca:    0afd        ..      LSRS     r5,r7,#11
        0x000003cc:    300a        .0      ADDS     r0,r0,#0xa
        0x000003ce:    d502        ..      BPL      0x3d6 ; _double_epilogue + 144
        0x000003d0:    2000        .       MOVS     r0,#0
        0x000003d2:    4601        .F      MOV      r1,r0
        0x000003d4:    e7e9        ..      B        0x3aa ; _double_epilogue + 100
        0x000003d6:    0501        ..      LSLS     r1,r0,#20
        0x000003d8:    1910        ..      ADDS     r0,r2,r4
        0x000003da:    4169        iA      ADCS     r1,r1,r5
        0x000003dc:    9c0c        ..      LDR      r4,[sp,#0x30]
        0x000003de:    9d0d        ..      LDR      r5,[sp,#0x34]
        0x000003e0:    1900        ..      ADDS     r0,r0,r4
        0x000003e2:    4169        iA      ADCS     r1,r1,r5
        0x000003e4:    f7ffffa2    ....    BL       __I$use$fp ; 0x32c
        0x000003e8:    e7df        ..      B        0x3aa ; _double_epilogue + 100
        0x000003ea:    0000        ..      MOVS     r0,r0
    .text
    __aeabi_dadd
        0x000003ec:    b5f0        ..      PUSH     {r4-r7,lr}
        0x000003ee:    4607        .F      MOV      r7,r0
        0x000003f0:    4608        .F      MOV      r0,r1
        0x000003f2:    4058        X@      EORS     r0,r0,r3
        0x000003f4:    b087        ..      SUB      sp,sp,#0x1c
        0x000003f6:    0fc0        ..      LSRS     r0,r0,#31
        0x000003f8:    9004        ..      STR      r0,[sp,#0x10]
        0x000003fa:    0048        H.      LSLS     r0,r1,#1
        0x000003fc:    460e        .F      MOV      r6,r1
        0x000003fe:    0059        Y.      LSLS     r1,r3,#1
        0x00000400:    0840        @.      LSRS     r0,r0,#1
        0x00000402:    0849        I.      LSRS     r1,r1,#1
        0x00000404:    1abc        ..      SUBS     r4,r7,r2
        0x00000406:    4188        .A      SBCS     r0,r0,r1
        0x00000408:    d205        ..      BCS      0x416 ; __aeabi_dadd + 42
        0x0000040a:    4638        8F      MOV      r0,r7
        0x0000040c:    4631        1F      MOV      r1,r6
        0x0000040e:    461e        .F      MOV      r6,r3
        0x00000410:    4617        .F      MOV      r7,r2
        0x00000412:    460b        .F      MOV      r3,r1
        0x00000414:    4602        .F      MOV      r2,r0
        0x00000416:    0058        X.      LSLS     r0,r3,#1
        0x00000418:    0840        @.      LSRS     r0,r0,#1
        0x0000041a:    4310        .C      ORRS     r0,r0,r2
        0x0000041c:    d04c        L.      BEQ      0x4b8 ; __aeabi_dadd + 204
        0x0000041e:    0d30        0.      LSRS     r0,r6,#20
        0x00000420:    9003        ..      STR      r0,[sp,#0xc]
        0x00000422:    0540        @.      LSLS     r0,r0,#21
        0x00000424:    0059        Y.      LSLS     r1,r3,#1
        0x00000426:    0d40        @.      LSRS     r0,r0,#21
        0x00000428:    0d49        I.      LSRS     r1,r1,#21
        0x0000042a:    9005        ..      STR      r0,[sp,#0x14]
        0x0000042c:    1a40        @.      SUBS     r0,r0,r1
        0x0000042e:    9002        ..      STR      r0,[sp,#8]
        0x00000430:    2840        @(      CMP      r0,#0x40
        0x00000432:    da72        r.      BGE      0x51a ; __aeabi_dadd + 302
        0x00000434:    0318        ..      LSLS     r0,r3,#12
        0x00000436:    2101        .!      MOVS     r1,#1
        0x00000438:    0b00        ..      LSRS     r0,r0,#12
        0x0000043a:    0509        ..      LSLS     r1,r1,#20
        0x0000043c:    4308        .C      ORRS     r0,r0,r1
        0x0000043e:    9001        ..      STR      r0,[sp,#4]
        0x00000440:    9804        ..      LDR      r0,[sp,#0x10]
        0x00000442:    9200        ..      STR      r2,[sp,#0]
        0x00000444:    2800        .(      CMP      r0,#0
        0x00000446:    d005        ..      BEQ      0x454 ; __aeabi_dadd + 104
        0x00000448:    9901        ..      LDR      r1,[sp,#4]
        0x0000044a:    4252        RB      RSBS     r2,r2,#0
        0x0000044c:    2000        .       MOVS     r0,#0
        0x0000044e:    4188        .A      SBCS     r0,r0,r1
        0x00000450:    9200        ..      STR      r2,[sp,#0]
        0x00000452:    9001        ..      STR      r0,[sp,#4]
        0x00000454:    9802        ..      LDR      r0,[sp,#8]
        0x00000456:    2140        @!      MOVS     r1,#0x40
        0x00000458:    1a0a        ..      SUBS     r2,r1,r0
        0x0000045a:    9901        ..      LDR      r1,[sp,#4]
        0x0000045c:    9800        ..      LDR      r0,[sp,#0]
        0x0000045e:    f000f925    ..%.    BL       __aeabi_llsl ; 0x6ac
        0x00000462:    4605        .F      MOV      r5,r0
        0x00000464:    460c        .F      MOV      r4,r1
        0x00000466:    466b        kF      MOV      r3,sp
        0x00000468:    cb07        ..      LDM      r3!,{r0-r2}
        0x0000046a:    f000f940    ..@.    BL       __aeabi_lasr ; 0x6ee
        0x0000046e:    19c0        ..      ADDS     r0,r0,r7
        0x00000470:    4171        qA      ADCS     r1,r1,r6
        0x00000472:    9a03        ..      LDR      r2,[sp,#0xc]
        0x00000474:    0d0e        ..      LSRS     r6,r1,#20
        0x00000476:    2300        .#      MOVS     r3,#0
        0x00000478:    17d7        ..      ASRS     r7,r2,#31
        0x0000047a:    4056        V@      EORS     r6,r6,r2
        0x0000047c:    461a        .F      MOV      r2,r3
        0x0000047e:    407a        z@      EORS     r2,r2,r7
        0x00000480:    4316        .C      ORRS     r6,r6,r2
        0x00000482:    d044        D.      BEQ      0x50e ; __aeabi_dadd + 290
        0x00000484:    9a04        ..      LDR      r2,[sp,#0x10]
        0x00000486:    2a00        .*      CMP      r2,#0
        0x00000488:    d02d        -.      BEQ      0x4e6 ; __aeabi_dadd + 250
        0x0000048a:    9a02        ..      LDR      r2,[sp,#8]
        0x0000048c:    2a01        .*      CMP      r2,#1
        0x0000048e:    9a03        ..      LDR      r2,[sp,#0xc]
        0x00000490:    dc15        ..      BGT      0x4be ; __aeabi_dadd + 210
        0x00000492:    0512        ..      LSLS     r2,r2,#20
        0x00000494:    1ac0        ..      SUBS     r0,r0,r3
        0x00000496:    4191        .A      SBCS     r1,r1,r2
        0x00000498:    2601        .&      MOVS     r6,#1
        0x0000049a:    0536        6.      LSLS     r6,r6,#20
        0x0000049c:    1c00        ..      ADDS     r0,r0,#0
        0x0000049e:    4171        qA      ADCS     r1,r1,r6
        0x000004a0:    0fd2        ..      LSRS     r2,r2,#31
        0x000004a2:    9e05        ..      LDR      r6,[sp,#0x14]
        0x000004a4:    07d2        ..      LSLS     r2,r2,#31
        0x000004a6:    9300        ..      STR      r3,[sp,#0]
        0x000004a8:    9201        ..      STR      r2,[sp,#4]
        0x000004aa:    9602        ..      STR      r6,[sp,#8]
        0x000004ac:    462a        *F      MOV      r2,r5
        0x000004ae:    4623        #F      MOV      r3,r4
        0x000004b0:    f7ffff49    ..I.    BL       _double_epilogue ; 0x346
        0x000004b4:    b007        ..      ADD      sp,sp,#0x1c
        0x000004b6:    bdf0        ..      POP      {r4-r7,pc}
        0x000004b8:    4638        8F      MOV      r0,r7
        0x000004ba:    4631        1F      MOV      r1,r6
        0x000004bc:    e7fa        ..      B        0x4b4 ; __aeabi_dadd + 200
        0x000004be:    0516        ..      LSLS     r6,r2,#20
        0x000004c0:    4a22        "J      LDR      r2,[pc,#136] ; [0x54c] = 0xffe00000
        0x000004c2:    460f        .F      MOV      r7,r1
        0x000004c4:    18b2        ..      ADDS     r2,r6,r2
        0x000004c6:    1ac0        ..      SUBS     r0,r0,r3
        0x000004c8:    41b7        .A      SBCS     r7,r7,r6
        0x000004ca:    2101        .!      MOVS     r1,#1
        0x000004cc:    0509        ..      LSLS     r1,r1,#20
        0x000004ce:    1c00        ..      ADDS     r0,r0,#0
        0x000004d0:    414f        OA      ADCS     r7,r7,r1
        0x000004d2:    1800        ..      ADDS     r0,r0,r0
        0x000004d4:    417f        .A      ADCS     r7,r7,r7
        0x000004d6:    4611        .F      MOV      r1,r2
        0x000004d8:    1818        ..      ADDS     r0,r3,r0
        0x000004da:    4179        yA      ADCS     r1,r1,r7
        0x000004dc:    0fe2        ..      LSRS     r2,r4,#31
        0x000004de:    4310        .C      ORRS     r0,r0,r2
        0x000004e0:    196d        m.      ADDS     r5,r5,r5
        0x000004e2:    4164        dA      ADCS     r4,r4,r4
        0x000004e4:    e013        ..      B        0x50e ; __aeabi_dadd + 290
        0x000004e6:    07e2        ..      LSLS     r2,r4,#31
        0x000004e8:    086d        m.      LSRS     r5,r5,#1
        0x000004ea:    4315        .C      ORRS     r5,r5,r2
        0x000004ec:    0864        d.      LSRS     r4,r4,#1
        0x000004ee:    07c2        ..      LSLS     r2,r0,#31
        0x000004f0:    4314        .C      ORRS     r4,r4,r2
        0x000004f2:    9a03        ..      LDR      r2,[sp,#0xc]
        0x000004f4:    2601        .&      MOVS     r6,#1
        0x000004f6:    0512        ..      LSLS     r2,r2,#20
        0x000004f8:    1ac0        ..      SUBS     r0,r0,r3
        0x000004fa:    4191        .A      SBCS     r1,r1,r2
        0x000004fc:    0536        6.      LSLS     r6,r6,#20
        0x000004fe:    1c00        ..      ADDS     r0,r0,#0
        0x00000500:    4171        qA      ADCS     r1,r1,r6
        0x00000502:    07ce        ..      LSLS     r6,r1,#31
        0x00000504:    0840        @.      LSRS     r0,r0,#1
        0x00000506:    4330        0C      ORRS     r0,r0,r6
        0x00000508:    0849        I.      LSRS     r1,r1,#1
        0x0000050a:    18c0        ..      ADDS     r0,r0,r3
        0x0000050c:    4151        QA      ADCS     r1,r1,r2
        0x0000050e:    462a        *F      MOV      r2,r5
        0x00000510:    4623        #F      MOV      r3,r4
        0x00000512:    f7ffff0b    ....    BL       __I$use$fp ; 0x32c
        0x00000516:    e7cd        ..      B        0x4b4 ; __aeabi_dadd + 200
        0x00000518:    e7ff        ..      B        0x51a ; __aeabi_dadd + 302
        0x0000051a:    9804        ..      LDR      r0,[sp,#0x10]
        0x0000051c:    2201        ."      MOVS     r2,#1
        0x0000051e:    0040        @.      LSLS     r0,r0,#1
        0x00000520:    17c1        ..      ASRS     r1,r0,#31
        0x00000522:    1a12        ..      SUBS     r2,r2,r0
        0x00000524:    2300        .#      MOVS     r3,#0
        0x00000526:    418b        .A      SBCS     r3,r3,r1
        0x00000528:    9804        ..      LDR      r0,[sp,#0x10]
        0x0000052a:    4631        1F      MOV      r1,r6
        0x0000052c:    17c4        ..      ASRS     r4,r0,#31
        0x0000052e:    1a38        8.      SUBS     r0,r7,r0
        0x00000530:    41a1        .A      SBCS     r1,r1,r4
        0x00000532:    e7ee        ..      B        0x512 ; __aeabi_dadd + 294
    __aeabi_dsub
        0x00000534:    b430        0.      PUSH     {r4,r5}
        0x00000536:    2401        .$      MOVS     r4,#1
        0x00000538:    07e4        ..      LSLS     r4,r4,#31
        0x0000053a:    4063        c@      EORS     r3,r3,r4
        0x0000053c:    bc30        0.      POP      {r4,r5}
        0x0000053e:    e755        U.      B        __aeabi_dadd ; 0x3ec
    __aeabi_drsub
        0x00000540:    b430        0.      PUSH     {r4,r5}
        0x00000542:    2401        .$      MOVS     r4,#1
        0x00000544:    07e4        ..      LSLS     r4,r4,#31
        0x00000546:    4061        a@      EORS     r1,r1,r4
        0x00000548:    bc30        0.      POP      {r4,r5}
        0x0000054a:    e74f        O.      B        __aeabi_dadd ; 0x3ec
    $d
        0x0000054c:    ffe00000    ....    DCD    4292870144
    $t
    .text
    __aeabi_dmul
        0x00000550:    b5f0        ..      PUSH     {r4-r7,lr}
        0x00000552:    b41f        ..      PUSH     {r0-r4}
        0x00000554:    b088        ..      SUB      sp,sp,#0x20
        0x00000556:    990b        ..      LDR      r1,[sp,#0x2c]
        0x00000558:    9809        ..      LDR      r0,[sp,#0x24]
        0x0000055a:    2400        .$      MOVS     r4,#0
        0x0000055c:    4048        H@      EORS     r0,r0,r1
        0x0000055e:    9909        ..      LDR      r1,[sp,#0x24]
        0x00000560:    0fc0        ..      LSRS     r0,r0,#31
        0x00000562:    0049        I.      LSLS     r1,r1,#1
        0x00000564:    0849        I.      LSRS     r1,r1,#1
        0x00000566:    9109        ..      STR      r1,[sp,#0x24]
        0x00000568:    07c0        ..      LSLS     r0,r0,#31
        0x0000056a:    990b        ..      LDR      r1,[sp,#0x2c]
        0x0000056c:    9000        ..      STR      r0,[sp,#0]
        0x0000056e:    0049        I.      LSLS     r1,r1,#1
        0x00000570:    0849        I.      LSRS     r1,r1,#1
        0x00000572:    910b        ..      STR      r1,[sp,#0x2c]
        0x00000574:    9909        ..      LDR      r1,[sp,#0x24]
        0x00000576:    9808        ..      LDR      r0,[sp,#0x20]
        0x00000578:    46a6        .F      MOV      lr,r4
        0x0000057a:    4308        .C      ORRS     r0,r0,r1
        0x0000057c:    d01c        ..      BEQ      0x5b8 ; __aeabi_dmul + 104
        0x0000057e:    990b        ..      LDR      r1,[sp,#0x2c]
        0x00000580:    980a        ..      LDR      r0,[sp,#0x28]
        0x00000582:    4308        .C      ORRS     r0,r0,r1
        0x00000584:    d018        ..      BEQ      0x5b8 ; __aeabi_dmul + 104
        0x00000586:    9809        ..      LDR      r0,[sp,#0x24]
        0x00000588:    2401        .$      MOVS     r4,#1
        0x0000058a:    0040        @.      LSLS     r0,r0,#1
        0x0000058c:    0d42        B.      LSRS     r2,r0,#21
        0x0000058e:    0048        H.      LSLS     r0,r1,#1
        0x00000590:    0d41        A.      LSRS     r1,r0,#21
        0x00000592:    9809        ..      LDR      r0,[sp,#0x24]
        0x00000594:    0524        $.      LSLS     r4,r4,#20
        0x00000596:    0300        ..      LSLS     r0,r0,#12
        0x00000598:    0b00        ..      LSRS     r0,r0,#12
        0x0000059a:    4320         C      ORRS     r0,r0,r4
        0x0000059c:    9009        ..      STR      r0,[sp,#0x24]
        0x0000059e:    980b        ..      LDR      r0,[sp,#0x2c]
        0x000005a0:    0300        ..      LSLS     r0,r0,#12
        0x000005a2:    0b00        ..      LSRS     r0,r0,#12
        0x000005a4:    4320         C      ORRS     r0,r0,r4
        0x000005a6:    900b        ..      STR      r0,[sp,#0x2c]
        0x000005a8:    1850        P.      ADDS     r0,r2,r1
        0x000005aa:    491c        .I      LDR      r1,[pc,#112] ; [0x61c] = 0xfffffc0d
        0x000005ac:    1840        @.      ADDS     r0,r0,r1
        0x000005ae:    2200        ."      MOVS     r2,#0
        0x000005b0:    9001        ..      STR      r0,[sp,#4]
        0x000005b2:    4614        .F      MOV      r4,r2
        0x000005b4:    4610        .F      MOV      r0,r2
        0x000005b6:    e005        ..      B        0x5c4 ; __aeabi_dmul + 116
        0x000005b8:    2000        .       MOVS     r0,#0
        0x000005ba:    4601        .F      MOV      r1,r0
        0x000005bc:    b00d        ..      ADD      sp,sp,#0x34
        0x000005be:    bdf0        ..      POP      {r4-r7,pc}
        0x000005c0:    2803        .(      CMP      r0,#3
        0x000005c2:    da01        ..      BGE      0x5c8 ; __aeabi_dmul + 120
        0x000005c4:    4603        .F      MOV      r3,r0
        0x000005c6:    e000        ..      B        0x5ca ; __aeabi_dmul + 122
        0x000005c8:    2303        .#      MOVS     r3,#3
        0x000005ca:    469c        .F      MOV      r12,r3
        0x000005cc:    1ac1        ..      SUBS     r1,r0,r3
        0x000005ce:    ae0a        ..      ADD      r6,sp,#0x28
        0x000005d0:    e00a        ..      B        0x5e8 ; __aeabi_dmul + 152
        0x000005d2:    005f        _.      LSLS     r7,r3,#1
        0x000005d4:    ad08        ..      ADD      r5,sp,#0x20
        0x000005d6:    5bed        .[      LDRH     r5,[r5,r7]
        0x000005d8:    004f        O.      LSLS     r7,r1,#1
        0x000005da:    5bf7        .[      LDRH     r7,[r6,r7]
        0x000005dc:    437d        }C      MULS     r5,r7,r5
        0x000005de:    2700        .'      MOVS     r7,#0
        0x000005e0:    18aa        ..      ADDS     r2,r5,r2
        0x000005e2:    417c        |A      ADCS     r4,r4,r7
        0x000005e4:    1c49        I.      ADDS     r1,r1,#1
        0x000005e6:    1e5b        [.      SUBS     r3,r3,#1
        0x000005e8:    4561        aE      CMP      r1,r12
        0x000005ea:    ddf2        ..      BLE      0x5d2 ; __aeabi_dmul + 130
        0x000005ec:    0041        A.      LSLS     r1,r0,#1
        0x000005ee:    ab04        ..      ADD      r3,sp,#0x10
        0x000005f0:    525a        ZR      STRH     r2,[r3,r1]
        0x000005f2:    0421        !.      LSLS     r1,r4,#16
        0x000005f4:    0c12        ..      LSRS     r2,r2,#16
        0x000005f6:    430a        .C      ORRS     r2,r2,r1
        0x000005f8:    0c24        $.      LSRS     r4,r4,#16
        0x000005fa:    1c40        @.      ADDS     r0,r0,#1
        0x000005fc:    2808        .(      CMP      r0,#8
        0x000005fe:    dbdf        ..      BLT      0x5c0 ; __aeabi_dmul + 112
        0x00000600:    9801        ..      LDR      r0,[sp,#4]
        0x00000602:    9002        ..      STR      r0,[sp,#8]
        0x00000604:    9900        ..      LDR      r1,[sp,#0]
        0x00000606:    4670        pF      MOV      r0,lr
        0x00000608:    9101        ..      STR      r1,[sp,#4]
        0x0000060a:    9000        ..      STR      r0,[sp,#0]
        0x0000060c:    9b05        ..      LDR      r3,[sp,#0x14]
        0x0000060e:    9a04        ..      LDR      r2,[sp,#0x10]
        0x00000610:    9907        ..      LDR      r1,[sp,#0x1c]
        0x00000612:    9806        ..      LDR      r0,[sp,#0x18]
        0x00000614:    f7fffe97    ....    BL       _double_epilogue ; 0x346
        0x00000618:    e7d0        ..      B        0x5bc ; __aeabi_dmul + 108
    $d
        0x0000061a:    0000        ..      DCW    0
        0x0000061c:    fffffc0d    ....    DCD    4294966285
    $t
    .text
    __aeabi_d2ulz
        0x00000620:    004a        J.      LSLS     r2,r1,#1
        0x00000622:    0309        ..      LSLS     r1,r1,#12
        0x00000624:    2301        .#      MOVS     r3,#1
        0x00000626:    0b09        ..      LSRS     r1,r1,#12
        0x00000628:    051b        ..      LSLS     r3,r3,#20
        0x0000062a:    4319        .C      ORRS     r1,r1,r3
        0x0000062c:    4b0a        .K      LDR      r3,[pc,#40] ; [0x658] = 0x3ff
        0x0000062e:    b510        ..      PUSH     {r4,lr}
        0x00000630:    0d52        R.      LSRS     r2,r2,#21
        0x00000632:    429a        .B      CMP      r2,r3
        0x00000634:    da02        ..      BGE      0x63c ; __aeabi_d2ulz + 28
        0x00000636:    2000        .       MOVS     r0,#0
        0x00000638:    4601        .F      MOV      r1,r0
        0x0000063a:    bd10        ..      POP      {r4,pc}
        0x0000063c:    4b06        .K      LDR      r3,[pc,#24] ; [0x658] = 0x3ff
        0x0000063e:    3334        43      ADDS     r3,r3,#0x34
        0x00000640:    429a        .B      CMP      r2,r3
        0x00000642:    dc03        ..      BGT      0x64c ; __aeabi_d2ulz + 44
        0x00000644:    1a9a        ..      SUBS     r2,r3,r2
        0x00000646:    f000f841    ..A.    BL       __aeabi_llsr ; 0x6cc
        0x0000064a:    bd10        ..      POP      {r4,pc}
        0x0000064c:    4b03        .K      LDR      r3,[pc,#12] ; [0x65c] = 0xfffffbcd
        0x0000064e:    18d2        ..      ADDS     r2,r2,r3
        0x00000650:    f000f82c    ..,.    BL       __aeabi_llsl ; 0x6ac
        0x00000654:    bd10        ..      POP      {r4,pc}
    $d
        0x00000656:    0000        ..      DCW    0
        0x00000658:    000003ff    ....    DCD    1023
        0x0000065c:    fffffbcd    ....    DCD    4294966221
    $t
    .text
    __aeabi_cdrcmple
        0x00000660:    b510        ..      PUSH     {r4,lr}
        0x00000662:    2900        .)      CMP      r1,#0
        0x00000664:    db04        ..      BLT      0x670 ; __aeabi_cdrcmple + 16
        0x00000666:    2401        .$      MOVS     r4,#1
        0x00000668:    07e4        ..      LSLS     r4,r4,#31
        0x0000066a:    4240        @B      RSBS     r0,r0,#0
        0x0000066c:    418c        .A      SBCS     r4,r4,r1
        0x0000066e:    4621        !F      MOV      r1,r4
        0x00000670:    2b00        .+      CMP      r3,#0
        0x00000672:    db04        ..      BLT      0x67e ; __aeabi_cdrcmple + 30
        0x00000674:    461c        .F      MOV      r4,r3
        0x00000676:    2301        .#      MOVS     r3,#1
        0x00000678:    07db        ..      LSLS     r3,r3,#31
        0x0000067a:    4252        RB      RSBS     r2,r2,#0
        0x0000067c:    41a3        .A      SBCS     r3,r3,r4
        0x0000067e:    4299        .B      CMP      r1,r3
        0x00000680:    d100        ..      BNE      0x684 ; __aeabi_cdrcmple + 36
        0x00000682:    4290        .B      CMP      r0,r2
        0x00000684:    bd10        ..      POP      {r4,pc}
    $d
        0x00000686:    0000        ..      DCW    0
    $t
    .text
    __scatterload
    __scatterload_rt2
        0x00000688:    4c06        .L      LDR      r4,[pc,#24] ; [0x6a4] = 0x2188
        0x0000068a:    2501        .%      MOVS     r5,#1
        0x0000068c:    4e06        .N      LDR      r6,[pc,#24] ; [0x6a8] = 0x21a8
        0x0000068e:    e005        ..      B        0x69c ; __scatterload + 20
        0x00000690:    68e3        .h      LDR      r3,[r4,#0xc]
        0x00000692:    cc07        ..      LDM      r4!,{r0-r2}
        0x00000694:    432b        +C      ORRS     r3,r3,r5
        0x00000696:    3c0c        .<      SUBS     r4,r4,#0xc
        0x00000698:    4798        .G      BLX      r3
        0x0000069a:    3410        .4      ADDS     r4,r4,#0x10
        0x0000069c:    42b4        .B      CMP      r4,r6
        0x0000069e:    d3f7        ..      BCC      0x690 ; __scatterload + 8
        0x000006a0:    f7fffd12    ....    BL       __main_after_scatterload ; 0xc8
    $d
        0x000006a4:    00002188    .!..    DCD    8584
        0x000006a8:    000021a8    .!..    DCD    8616
    $t
    .text
    __aeabi_llsl
    _ll_shift_l
        0x000006ac:    b510        ..      PUSH     {r4,lr}
        0x000006ae:    2a20         *      CMP      r2,#0x20
        0x000006b0:    db04        ..      BLT      0x6bc ; __aeabi_llsl + 16
        0x000006b2:    4601        .F      MOV      r1,r0
        0x000006b4:    3a20         :      SUBS     r2,r2,#0x20
        0x000006b6:    4091        .@      LSLS     r1,r1,r2
        0x000006b8:    2000        .       MOVS     r0,#0
        0x000006ba:    bd10        ..      POP      {r4,pc}
        0x000006bc:    4091        .@      LSLS     r1,r1,r2
        0x000006be:    2320         #      MOVS     r3,#0x20
        0x000006c0:    1a9c        ..      SUBS     r4,r3,r2
        0x000006c2:    4603        .F      MOV      r3,r0
        0x000006c4:    40e3        .@      LSRS     r3,r3,r4
        0x000006c6:    4319        .C      ORRS     r1,r1,r3
        0x000006c8:    4090        .@      LSLS     r0,r0,r2
        0x000006ca:    bd10        ..      POP      {r4,pc}
    .text
    __aeabi_llsr
    _ll_ushift_r
        0x000006cc:    b510        ..      PUSH     {r4,lr}
        0x000006ce:    2a20         *      CMP      r2,#0x20
        0x000006d0:    db04        ..      BLT      0x6dc ; __aeabi_llsr + 16
        0x000006d2:    4608        .F      MOV      r0,r1
        0x000006d4:    3a20         :      SUBS     r2,r2,#0x20
        0x000006d6:    40d0        .@      LSRS     r0,r0,r2
        0x000006d8:    2100        .!      MOVS     r1,#0
        0x000006da:    bd10        ..      POP      {r4,pc}
        0x000006dc:    460b        .F      MOV      r3,r1
        0x000006de:    40d3        .@      LSRS     r3,r3,r2
        0x000006e0:    40d0        .@      LSRS     r0,r0,r2
        0x000006e2:    2420         $      MOVS     r4,#0x20
        0x000006e4:    1aa2        ..      SUBS     r2,r4,r2
        0x000006e6:    4091        .@      LSLS     r1,r1,r2
        0x000006e8:    4308        .C      ORRS     r0,r0,r1
        0x000006ea:    4619        .F      MOV      r1,r3
        0x000006ec:    bd10        ..      POP      {r4,pc}
    .text
    __aeabi_lasr
    _ll_sshift_r
        0x000006ee:    b510        ..      PUSH     {r4,lr}
        0x000006f0:    2a20         *      CMP      r2,#0x20
        0x000006f2:    db06        ..      BLT      0x702 ; __aeabi_lasr + 20
        0x000006f4:    17cb        ..      ASRS     r3,r1,#31
        0x000006f6:    4608        .F      MOV      r0,r1
        0x000006f8:    3a20         :      SUBS     r2,r2,#0x20
        0x000006fa:    4110        .A      ASRS     r0,r0,r2
        0x000006fc:    17c1        ..      ASRS     r1,r0,#31
        0x000006fe:    430b        .C      ORRS     r3,r3,r1
        0x00000700:    e006        ..      B        0x710 ; __aeabi_lasr + 34
        0x00000702:    460b        .F      MOV      r3,r1
        0x00000704:    4113        .A      ASRS     r3,r3,r2
        0x00000706:    40d0        .@      LSRS     r0,r0,r2
        0x00000708:    2420         $      MOVS     r4,#0x20
        0x0000070a:    1aa2        ..      SUBS     r2,r4,r2
        0x0000070c:    4091        .@      LSLS     r1,r1,r2
        0x0000070e:    4308        .C      ORRS     r0,r0,r1
        0x00000710:    4619        .F      MOV      r1,r3
        0x00000712:    bd10        ..      POP      {r4,pc}
    i.CLK_EnableModuleClock
    CLK_EnableModuleClock
        0x00000714:    b50e        ..      PUSH     {r1-r3,lr}
        0x00000716:    4909        .I      LDR      r1,[pc,#36] ; [0x73c] = 0x2150
        0x00000718:    c90e        ..      LDM      r1,{r1-r3}
        0x0000071a:    9100        ..      STR      r1,[sp,#0]
        0x0000071c:    9201        ..      STR      r2,[sp,#4]
        0x0000071e:    0f81        ..      LSRS     r1,r0,#30
        0x00000720:    008a        ..      LSLS     r2,r1,#2
        0x00000722:    9302        ..      STR      r3,[sp,#8]
        0x00000724:    4669        iF      MOV      r1,sp
        0x00000726:    588a        .X      LDR      r2,[r1,r2]
        0x00000728:    4905        .I      LDR      r1,[pc,#20] ; [0x740] = 0x40000200
        0x0000072a:    1851        Q.      ADDS     r1,r2,r1
        0x0000072c:    684a        Jh      LDR      r2,[r1,#4]
        0x0000072e:    06c3        ..      LSLS     r3,r0,#27
        0x00000730:    0edb        ..      LSRS     r3,r3,#27
        0x00000732:    2001        .       MOVS     r0,#1
        0x00000734:    4098        .@      LSLS     r0,r0,r3
        0x00000736:    4302        .C      ORRS     r2,r2,r0
        0x00000738:    604a        J`      STR      r2,[r1,#4]
        0x0000073a:    bd0e        ..      POP      {r1-r3,pc}
    $d
        0x0000073c:    00002150    P!..    DCD    8528
        0x00000740:    40000200    ...@    DCD    1073742336
    $t
    i.CLK_EnableXtalRC
    CLK_EnableXtalRC
        0x00000744:    4902        .I      LDR      r1,[pc,#8] ; [0x750] = 0x40000200
        0x00000746:    680a        .h      LDR      r2,[r1,#0]
        0x00000748:    4302        .C      ORRS     r2,r2,r0
        0x0000074a:    600a        .`      STR      r2,[r1,#0]
        0x0000074c:    4770        pG      BX       lr
    $d
        0x0000074e:    0000        ..      DCW    0
        0x00000750:    40000200    ...@    DCD    1073742336
    $t
    i.CLK_GetCPUFreq
    CLK_GetCPUFreq
        0x00000754:    b510        ..      PUSH     {r4,lr}
        0x00000756:    f000fcd5    ....    BL       SystemCoreClockUpdate ; 0x1104
        0x0000075a:    4801        .H      LDR      r0,[pc,#4] ; [0x760] = 0x20000000
        0x0000075c:    6800        .h      LDR      r0,[r0,#0]
        0x0000075e:    bd10        ..      POP      {r4,pc}
    $d
        0x00000760:    20000000    ...     DCD    536870912
    $t
    i.CLK_GetHXTFreq
    CLK_GetHXTFreq
        0x00000764:    4802        .H      LDR      r0,[pc,#8] ; [0x770] = 0x40000200
        0x00000766:    6800        .h      LDR      r0,[r0,#0]
        0x00000768:    07c0        ..      LSLS     r0,r0,#31
        0x0000076a:    d000        ..      BEQ      0x76e ; CLK_GetHXTFreq + 10
        0x0000076c:    4801        .H      LDR      r0,[pc,#4] ; [0x774] = 0x1e84800
        0x0000076e:    4770        pG      BX       lr
    $d
        0x00000770:    40000200    ...@    DCD    1073742336
        0x00000774:    01e84800    .H..    DCD    32000000
    $t
    i.CLK_GetLXTFreq
    CLK_GetLXTFreq
        0x00000778:    4804        .H      LDR      r0,[pc,#16] ; [0x78c] = 0x40000200
        0x0000077a:    6800        .h      LDR      r0,[r0,#0]
        0x0000077c:    0780        ..      LSLS     r0,r0,#30
        0x0000077e:    d502        ..      BPL      0x786 ; CLK_GetLXTFreq + 14
        0x00000780:    2001        .       MOVS     r0,#1
        0x00000782:    03c0        ..      LSLS     r0,r0,#15
        0x00000784:    4770        pG      BX       lr
        0x00000786:    2000        .       MOVS     r0,#0
        0x00000788:    4770        pG      BX       lr
    $d
        0x0000078a:    0000        ..      DCW    0
        0x0000078c:    40000200    ...@    DCD    1073742336
    $t
    i.CLK_GetPCLK0Freq
    CLK_GetPCLK0Freq
        0x00000790:    b510        ..      PUSH     {r4,lr}
        0x00000792:    f000fcb7    ....    BL       SystemCoreClockUpdate ; 0x1104
        0x00000796:    4804        .H      LDR      r0,[pc,#16] ; [0x7a8] = 0x40000200
        0x00000798:    6b40        @k      LDR      r0,[r0,#0x34]
        0x0000079a:    0741        A.      LSLS     r1,r0,#29
        0x0000079c:    4803        .H      LDR      r0,[pc,#12] ; [0x7ac] = 0x20000000
        0x0000079e:    0f49        I.      LSRS     r1,r1,#29
        0x000007a0:    6800        .h      LDR      r0,[r0,#0]
        0x000007a2:    40c8        .@      LSRS     r0,r0,r1
        0x000007a4:    bd10        ..      POP      {r4,pc}
    $d
        0x000007a6:    0000        ..      DCW    0
        0x000007a8:    40000200    ...@    DCD    1073742336
        0x000007ac:    20000000    ...     DCD    536870912
    $t
    i.CLK_GetPCLK1Freq
    CLK_GetPCLK1Freq
        0x000007b0:    b510        ..      PUSH     {r4,lr}
        0x000007b2:    f000fca7    ....    BL       SystemCoreClockUpdate ; 0x1104
        0x000007b6:    4804        .H      LDR      r0,[pc,#16] ; [0x7c8] = 0x40000200
        0x000007b8:    6b40        @k      LDR      r0,[r0,#0x34]
        0x000007ba:    0640        @.      LSLS     r0,r0,#25
        0x000007bc:    0f41        A.      LSRS     r1,r0,#29
        0x000007be:    4803        .H      LDR      r0,[pc,#12] ; [0x7cc] = 0x20000000
        0x000007c0:    6800        .h      LDR      r0,[r0,#0]
        0x000007c2:    40c8        .@      LSRS     r0,r0,r1
        0x000007c4:    bd10        ..      POP      {r4,pc}
    $d
        0x000007c6:    0000        ..      DCW    0
        0x000007c8:    40000200    ...@    DCD    1073742336
        0x000007cc:    20000000    ...     DCD    536870912
    $t
    i.CLK_GetPLLClockFreq
    CLK_GetPLLClockFreq
        0x000007d0:    b508        ..      PUSH     {r3,lr}
        0x000007d2:    a011        ..      ADR      r0,{pc}+0x46 ; 0x818
        0x000007d4:    6800        .h      LDR      r0,[r0,#0]
        0x000007d6:    4911        .I      LDR      r1,[pc,#68] ; [0x81c] = 0x40000240
        0x000007d8:    9000        ..      STR      r0,[sp,#0]
        0x000007da:    6809        .h      LDR      r1,[r1,#0]
        0x000007dc:    2000        .       MOVS     r0,#0
        0x000007de:    2205        ."      MOVS     r2,#5
        0x000007e0:    0412        ..      LSLS     r2,r2,#16
        0x000007e2:    4211        .B      TST      r1,r2
        0x000007e4:    d116        ..      BNE      0x814 ; CLK_GetPLLClockFreq + 68
        0x000007e6:    0308        ..      LSLS     r0,r1,#12
        0x000007e8:    d501        ..      BPL      0x7ee ; CLK_GetPLLClockFreq + 30
        0x000007ea:    480d        .H      LDR      r0,[pc,#52] ; [0x820] = 0xb71b00
        0x000007ec:    e000        ..      B        0x7f0 ; CLK_GetPLLClockFreq + 32
        0x000007ee:    480d        .H      LDR      r0,[pc,#52] ; [0x824] = 0x1e84800
        0x000007f0:    038a        ..      LSLS     r2,r1,#14
        0x000007f2:    d40f        ..      BMI      0x814 ; CLK_GetPLLClockFreq + 68
        0x000007f4:    040a        ..      LSLS     r2,r1,#16
        0x000007f6:    0f92        ..      LSRS     r2,r2,#30
        0x000007f8:    466b        kF      MOV      r3,sp
        0x000007fa:    5c9b        .\      LDRB     r3,[r3,r2]
        0x000007fc:    05ca        ..      LSLS     r2,r1,#23
        0x000007fe:    0489        ..      LSLS     r1,r1,#18
        0x00000800:    0dd2        ..      LSRS     r2,r2,#23
        0x00000802:    0ec9        ..      LSRS     r1,r1,#27
        0x00000804:    1c89        ..      ADDS     r1,r1,#2
        0x00000806:    0880        ..      LSRS     r0,r0,#2
        0x00000808:    1c92        ..      ADDS     r2,r2,#2
        0x0000080a:    4359        YC      MULS     r1,r3,r1
        0x0000080c:    4350        PC      MULS     r0,r2,r0
        0x0000080e:    f7fffc9d    ....    BL       __aeabi_uidiv ; 0x14c
        0x00000812:    0080        ..      LSLS     r0,r0,#2
        0x00000814:    bd08        ..      POP      {r3,pc}
    $d
        0x00000816:    0000        ..      DCW    0
        0x00000818:    04020201    ....    DCD    67240449
        0x0000081c:    40000240    @..@    DCD    1073742400
        0x00000820:    00b71b00    ....    DCD    12000000
        0x00000824:    01e84800    .H..    DCD    32000000
    $t
    i.CLK_GetPLLClockFreq
    CLK_GetPLLClockFreq
        0x00000828:    b508        ..      PUSH     {r3,lr}
        0x0000082a:    a011        ..      ADR      r0,{pc}+0x46 ; 0x870
        0x0000082c:    6800        .h      LDR      r0,[r0,#0]
        0x0000082e:    4911        .I      LDR      r1,[pc,#68] ; [0x874] = 0x40000240
        0x00000830:    9000        ..      STR      r0,[sp,#0]
        0x00000832:    6809        .h      LDR      r1,[r1,#0]
        0x00000834:    2000        .       MOVS     r0,#0
        0x00000836:    2205        ."      MOVS     r2,#5
        0x00000838:    0412        ..      LSLS     r2,r2,#16
        0x0000083a:    4211        .B      TST      r1,r2
        0x0000083c:    d116        ..      BNE      0x86c ; CLK_GetPLLClockFreq + 68
        0x0000083e:    0308        ..      LSLS     r0,r1,#12
        0x00000840:    d501        ..      BPL      0x846 ; CLK_GetPLLClockFreq + 30
        0x00000842:    480d        .H      LDR      r0,[pc,#52] ; [0x878] = 0xb71b00
        0x00000844:    e000        ..      B        0x848 ; CLK_GetPLLClockFreq + 32
        0x00000846:    480d        .H      LDR      r0,[pc,#52] ; [0x87c] = 0x1e84800
        0x00000848:    038a        ..      LSLS     r2,r1,#14
        0x0000084a:    d40f        ..      BMI      0x86c ; CLK_GetPLLClockFreq + 68
        0x0000084c:    040a        ..      LSLS     r2,r1,#16
        0x0000084e:    0f92        ..      LSRS     r2,r2,#30
        0x00000850:    466b        kF      MOV      r3,sp
        0x00000852:    5c9b        .\      LDRB     r3,[r3,r2]
        0x00000854:    05ca        ..      LSLS     r2,r1,#23
        0x00000856:    0489        ..      LSLS     r1,r1,#18
        0x00000858:    0dd2        ..      LSRS     r2,r2,#23
        0x0000085a:    0ec9        ..      LSRS     r1,r1,#27
        0x0000085c:    1c89        ..      ADDS     r1,r1,#2
        0x0000085e:    0880        ..      LSRS     r0,r0,#2
        0x00000860:    1c92        ..      ADDS     r2,r2,#2
        0x00000862:    4359        YC      MULS     r1,r3,r1
        0x00000864:    4350        PC      MULS     r0,r2,r0
        0x00000866:    f7fffc71    ..q.    BL       __aeabi_uidiv ; 0x14c
        0x0000086a:    0080        ..      LSLS     r0,r0,#2
        0x0000086c:    bd08        ..      POP      {r3,pc}
    $d
        0x0000086e:    0000        ..      DCW    0
        0x00000870:    04020201    ....    DCD    67240449
        0x00000874:    40000240    @..@    DCD    1073742400
        0x00000878:    00b71b00    ....    DCD    12000000
        0x0000087c:    01e84800    .H..    DCD    32000000
    $t
    i.CLK_SetHCLK
    CLK_SetHCLK
        0x00000880:    b5f3        ..      PUSH     {r0,r1,r4-r7,lr}
        0x00000882:    4812        .H      LDR      r0,[pc,#72] ; [0x8cc] = 0x40000240
        0x00000884:    b081        ..      SUB      sp,sp,#4
        0x00000886:    6905        .i      LDR      r5,[r0,#0x10]
        0x00000888:    460f        .F      MOV      r7,r1
        0x0000088a:    2010        .       MOVS     r0,#0x10
        0x0000088c:    4c0f        .L      LDR      r4,[pc,#60] ; [0x8cc] = 0x40000240
        0x0000088e:    4005        .@      ANDS     r5,r5,r0
        0x00000890:    3c40        @<      SUBS     r4,r4,#0x40
        0x00000892:    6820         h      LDR      r0,[r4,#0]
        0x00000894:    2604        .&      MOVS     r6,#4
        0x00000896:    4330        0C      ORRS     r0,r0,r6
        0x00000898:    6020         `      STR      r0,[r4,#0]
        0x0000089a:    2010        .       MOVS     r0,#0x10
        0x0000089c:    f000f850    ..P.    BL       CLK_WaitClockReady ; 0x940
        0x000008a0:    6920         i      LDR      r0,[r4,#0x10]
        0x000008a2:    2107        .!      MOVS     r1,#7
        0x000008a4:    4308        .C      ORRS     r0,r0,r1
        0x000008a6:    6120         a      STR      r0,[r4,#0x10]
        0x000008a8:    6a20         j      LDR      r0,[r4,#0x20]
        0x000008aa:    0900        ..      LSRS     r0,r0,#4
        0x000008ac:    0100        ..      LSLS     r0,r0,#4
        0x000008ae:    4338        8C      ORRS     r0,r0,r7
        0x000008b0:    6220         b      STR      r0,[r4,#0x20]
        0x000008b2:    6920         i      LDR      r0,[r4,#0x10]
        0x000008b4:    4388        .C      BICS     r0,r0,r1
        0x000008b6:    9901        ..      LDR      r1,[sp,#4]
        0x000008b8:    4308        .C      ORRS     r0,r0,r1
        0x000008ba:    6120         a      STR      r0,[r4,#0x10]
        0x000008bc:    f000fc22    ..".    BL       SystemCoreClockUpdate ; 0x1104
        0x000008c0:    2d00        .-      CMP      r5,#0
        0x000008c2:    d102        ..      BNE      0x8ca ; CLK_SetHCLK + 74
        0x000008c4:    6820         h      LDR      r0,[r4,#0]
        0x000008c6:    43b0        .C      BICS     r0,r0,r6
        0x000008c8:    6020         `      STR      r0,[r4,#0]
        0x000008ca:    bdfe        ..      POP      {r1-r7,pc}
    $d
        0x000008cc:    40000240    @..@    DCD    1073742400
    $t
    i.CLK_SetModuleClock
    CLK_SetModuleClock
        0x000008d0:    b5f0        ..      PUSH     {r4-r7,lr}
        0x000008d2:    4b19        .K      LDR      r3,[pc,#100] ; [0x938] = 0x2130
        0x000008d4:    b088        ..      SUB      sp,sp,#0x20
        0x000008d6:    cbf0        ..      LDM      r3!,{r4-r7}
        0x000008d8:    9400        ..      STR      r4,[sp,#0]
        0x000008da:    ac01        ..      ADD      r4,sp,#4
        0x000008dc:    c4e0        ..      STM      r4!,{r5-r7}
        0x000008de:    cb78        x.      LDM      r3,{r3-r6}
        0x000008e0:    af04        ..      ADD      r7,sp,#0x10
        0x000008e2:    c778        x.      STM      r7!,{r3-r6}
        0x000008e4:    0a84        ..      LSRS     r4,r0,#10
        0x000008e6:    0623        #.      LSLS     r3,r4,#24
        0x000008e8:    0e1b        ..      LSRS     r3,r3,#24
        0x000008ea:    d00e        ..      BEQ      0x90a ; CLK_SetModuleClock + 58
        0x000008ec:    0303        ..      LSLS     r3,r0,#12
        0x000008ee:    0f9b        ..      LSRS     r3,r3,#30
        0x000008f0:    009b        ..      LSLS     r3,r3,#2
        0x000008f2:    ad04        ..      ADD      r5,sp,#0x10
        0x000008f4:    58eb        .X      LDR      r3,[r5,r3]
        0x000008f6:    4d11        .M      LDR      r5,[pc,#68] ; [0x93c] = 0x40000220
        0x000008f8:    195b        [.      ADDS     r3,r3,r5
        0x000008fa:    b2e5        ..      UXTB     r5,r4
        0x000008fc:    0584        ..      LSLS     r4,r0,#22
        0x000008fe:    0ee4        ..      LSRS     r4,r4,#27
        0x00000900:    40a5        .@      LSLS     r5,r5,r4
        0x00000902:    681c        .h      LDR      r4,[r3,#0]
        0x00000904:    43ac        .C      BICS     r4,r4,r5
        0x00000906:    4314        .C      ORRS     r4,r4,r2
        0x00000908:    601c        .`      STR      r4,[r3,#0]
        0x0000090a:    0e42        B.      LSRS     r2,r0,#25
        0x0000090c:    0752        R.      LSLS     r2,r2,#29
        0x0000090e:    d010        ..      BEQ      0x932 ; CLK_SetModuleClock + 98
        0x00000910:    0082        ..      LSLS     r2,r0,#2
        0x00000912:    0f92        ..      LSRS     r2,r2,#30
        0x00000914:    0092        ..      LSLS     r2,r2,#2
        0x00000916:    466b        kF      MOV      r3,sp
        0x00000918:    589a        .X      LDR      r2,[r3,r2]
        0x0000091a:    4b08        .K      LDR      r3,[pc,#32] ; [0x93c] = 0x40000220
        0x0000091c:    3b10        .;      SUBS     r3,r3,#0x10
        0x0000091e:    18d2        ..      ADDS     r2,r2,r3
        0x00000920:    0103        ..      LSLS     r3,r0,#4
        0x00000922:    0f5b        [.      LSRS     r3,r3,#29
        0x00000924:    01c0        ..      LSLS     r0,r0,#7
        0x00000926:    0ec0        ..      LSRS     r0,r0,#27
        0x00000928:    4083        .@      LSLS     r3,r3,r0
        0x0000092a:    6810        .h      LDR      r0,[r2,#0]
        0x0000092c:    4398        .C      BICS     r0,r0,r3
        0x0000092e:    4308        .C      ORRS     r0,r0,r1
        0x00000930:    6010        .`      STR      r0,[r2,#0]
        0x00000932:    b008        ..      ADD      sp,sp,#0x20
        0x00000934:    bdf0        ..      POP      {r4-r7,pc}
    $d
        0x00000936:    0000        ..      DCW    0
        0x00000938:    00002130    0!..    DCD    8496
        0x0000093c:    40000220     ..@    DCD    1073742368
    $t
    i.CLK_WaitClockReady
    CLK_WaitClockReady
        0x00000940:    b510        ..      PUSH     {r4,lr}
        0x00000942:    4604        .F      MOV      r4,r0
        0x00000944:    4907        .I      LDR      r1,[pc,#28] ; [0x964] = 0x20f580
        0x00000946:    4b08        .K      LDR      r3,[pc,#32] ; [0x968] = 0x40000240
        0x00000948:    e005        ..      B        0x956 ; CLK_WaitClockReady + 22
        0x0000094a:    460a        .F      MOV      r2,r1
        0x0000094c:    1e49        I.      SUBS     r1,r1,#1
        0x0000094e:    2a00        .*      CMP      r2,#0
        0x00000950:    dc01        ..      BGT      0x956 ; CLK_WaitClockReady + 22
        0x00000952:    2000        .       MOVS     r0,#0
        0x00000954:    bd10        ..      POP      {r4,pc}
        0x00000956:    691a        .i      LDR      r2,[r3,#0x10]
        0x00000958:    4620         F      MOV      r0,r4
        0x0000095a:    4390        .C      BICS     r0,r0,r2
        0x0000095c:    d1f5        ..      BNE      0x94a ; CLK_WaitClockReady + 10
        0x0000095e:    2001        .       MOVS     r0,#1
        0x00000960:    bd10        ..      POP      {r4,pc}
    $d
        0x00000962:    0000        ..      DCW    0
        0x00000964:    0020f580    .. .    DCD    2160000
        0x00000968:    40000240    @..@    DCD    1073742400
    $t
    i.GPIO_Init
    GPIO_Init
        0x0000096c:    b510        ..      PUSH     {r4,lr}
        0x0000096e:    2201        ."      MOVS     r2,#1
        0x00000970:    0391        ..      LSLS     r1,r2,#14
        0x00000972:    4802        .H      LDR      r0,[pc,#8] ; [0x97c] = 0x40004040
        0x00000974:    f000f804    ....    BL       GPIO_SetMode ; 0x980
        0x00000978:    bd10        ..      POP      {r4,pc}
    $d
        0x0000097a:    0000        ..      DCW    0
        0x0000097c:    40004040    @@.@    DCD    1073758272
    $t
    i.GPIO_SetMode
    GPIO_SetMode
        0x00000980:    b5f0        ..      PUSH     {r4-r7,lr}
        0x00000982:    2300        .#      MOVS     r3,#0
        0x00000984:    2701        .'      MOVS     r7,#1
        0x00000986:    463c        <F      MOV      r4,r7
        0x00000988:    409c        .@      LSLS     r4,r4,r3
        0x0000098a:    420c        .B      TST      r4,r1
        0x0000098c:    d008        ..      BEQ      0x9a0 ; GPIO_SetMode + 32
        0x0000098e:    6805        .h      LDR      r5,[r0,#0]
        0x00000990:    005c        \.      LSLS     r4,r3,#1
        0x00000992:    2603        .&      MOVS     r6,#3
        0x00000994:    40a6        .@      LSLS     r6,r6,r4
        0x00000996:    43b5        .C      BICS     r5,r5,r6
        0x00000998:    4616        .F      MOV      r6,r2
        0x0000099a:    40a6        .@      LSLS     r6,r6,r4
        0x0000099c:    4335        5C      ORRS     r5,r5,r6
        0x0000099e:    6005        .`      STR      r5,[r0,#0]
        0x000009a0:    1c5b        [.      ADDS     r3,r3,#1
        0x000009a2:    2b10        .+      CMP      r3,#0x10
        0x000009a4:    d3ef        ..      BCC      0x986 ; GPIO_SetMode + 6
        0x000009a6:    bdf0        ..      POP      {r4-r7,pc}
    i.Hard_Fault_Handler
    Hard_Fault_Handler
    __tagsym$$used
        0x000009a8:    4604        .F      MOV      r4,r0
        0x000009aa:    a003        ..      ADR      r0,{pc}+0xe ; 0x9b8
        0x000009ac:    f000fe8a    ....    BL       __0printf ; 0x16c4
        0x000009b0:    4620         F      MOV      r0,r4
        0x000009b2:    f001fb35    ..5.    BL       stackDump ; 0x2020
        0x000009b6:    e7fe        ..      B        0x9b6 ; Hard_Fault_Handler + 14
    $d
        0x000009b8:    48206e49    In H    DCD    1210084937
        0x000009bc:    20647261    ard     DCD    543453793
        0x000009c0:    6c756146    Faul    DCD    1819631942
        0x000009c4:    61482074    t Ha    DCD    1632116852
        0x000009c8:    656c646e    ndle    DCD    1701602414
        0x000009cc:    00000a72    r...    DCD    2674
    $t
    i.PDMA_DisableTimeout
    PDMA_DisableTimeout
        0x000009d0:    2201        ."      MOVS     r2,#1
        0x000009d2:    0292        ..      LSLS     r2,r2,#10
        0x000009d4:    1880        ..      ADDS     r0,r0,r2
        0x000009d6:    6b42        Bk      LDR      r2,[r0,#0x34]
        0x000009d8:    438a        .C      BICS     r2,r2,r1
        0x000009da:    6342        Bc      STR      r2,[r0,#0x34]
        0x000009dc:    4770        pG      BX       lr
    i.PDMA_EnableInt
    PDMA_EnableInt
        0x000009de:    b510        ..      PUSH     {r4,lr}
        0x000009e0:    2401        .$      MOVS     r4,#1
        0x000009e2:    02a3        ..      LSLS     r3,r4,#10
        0x000009e4:    408c        .@      LSLS     r4,r4,r1
        0x000009e6:    18c3        ..      ADDS     r3,r0,r3
        0x000009e8:    2a00        .*      CMP      r2,#0
        0x000009ea:    d007        ..      BEQ      0x9fc ; PDMA_EnableInt + 30
        0x000009ec:    2a01        .*      CMP      r2,#1
        0x000009ee:    d009        ..      BEQ      0xa04 ; PDMA_EnableInt + 38
        0x000009f0:    2a02        .*      CMP      r2,#2
        0x000009f2:    d102        ..      BNE      0x9fa ; PDMA_EnableInt + 28
        0x000009f4:    6b98        .k      LDR      r0,[r3,#0x38]
        0x000009f6:    4320         C      ORRS     r0,r0,r4
        0x000009f8:    6398        .c      STR      r0,[r3,#0x38]
        0x000009fa:    bd10        ..      POP      {r4,pc}
        0x000009fc:    6998        .i      LDR      r0,[r3,#0x18]
        0x000009fe:    4320         C      ORRS     r0,r0,r4
        0x00000a00:    6198        .a      STR      r0,[r3,#0x18]
        0x00000a02:    bd10        ..      POP      {r4,pc}
        0x00000a04:    0109        ..      LSLS     r1,r1,#4
        0x00000a06:    5842        BX      LDR      r2,[r0,r1]
        0x00000a08:    2380        .#      MOVS     r3,#0x80
        0x00000a0a:    439a        .C      BICS     r2,r2,r3
        0x00000a0c:    5042        BP      STR      r2,[r0,r1]
        0x00000a0e:    bd10        ..      POP      {r4,pc}
    i.PDMA_EnableTimeout
    PDMA_EnableTimeout
        0x00000a10:    2201        ."      MOVS     r2,#1
        0x00000a12:    0292        ..      LSLS     r2,r2,#10
        0x00000a14:    1880        ..      ADDS     r0,r0,r2
        0x00000a16:    6b42        Bk      LDR      r2,[r0,#0x34]
        0x00000a18:    430a        .C      ORRS     r2,r2,r1
        0x00000a1a:    6342        Bc      STR      r2,[r0,#0x34]
        0x00000a1c:    4770        pG      BX       lr
        0x00000a1e:    0000        ..      MOVS     r0,r0
    i.PDMA_IRQHandler
    PDMA_IRQHandler
        0x00000a20:    b570        p.      PUSH     {r4-r6,lr}
        0x00000a22:    4c22        "L      LDR      r4,[pc,#136] ; [0xaac] = 0x40008400
        0x00000a24:    69e0        .i      LDR      r0,[r4,#0x1c]
        0x00000a26:    0581        ..      LSLS     r1,r0,#22
        0x00000a28:    d524        $.      BPL      0xa74 ; PDMA_IRQHandler + 84
        0x00000a2a:    4d21        !M      LDR      r5,[pc,#132] ; [0xab0] = 0x40008000
        0x00000a2c:    2300        .#      MOVS     r3,#0
        0x00000a2e:    461a        .F      MOV      r2,r3
        0x00000a30:    2101        .!      MOVS     r1,#1
        0x00000a32:    4628        (F      MOV      r0,r5
        0x00000a34:    f000f873    ..s.    BL       PDMA_SetTimeOut ; 0xb1e
        0x00000a38:    15a0        ..      ASRS     r0,r4,#22
        0x00000a3a:    61e0        .a      STR      r0,[r4,#0x1c]
        0x00000a3c:    f7fffe8a    ....    BL       CLK_GetCPUFreq ; 0x754
        0x00000a40:    217d        }!      MOVS     r1,#0x7d
        0x00000a42:    0bc0        ..      LSRS     r0,r0,#15
        0x00000a44:    00c9        ..      LSLS     r1,r1,#3
        0x00000a46:    f7fffb81    ....    BL       __aeabi_uidiv ; 0x14c
        0x00000a4a:    4603        .F      MOV      r3,r0
        0x00000a4c:    2201        ."      MOVS     r2,#1
        0x00000a4e:    2100        .!      MOVS     r1,#0
        0x00000a50:    4628        (F      MOV      r0,r5
        0x00000a52:    f000f864    ..d.    BL       PDMA_SetTimeOut ; 0xb1e
        0x00000a56:    2101        .!      MOVS     r1,#1
        0x00000a58:    4628        (F      MOV      r0,r5
        0x00000a5a:    f7ffffb9    ....    BL       PDMA_DisableTimeout ; 0x9d0
        0x00000a5e:    2101        .!      MOVS     r1,#1
        0x00000a60:    4628        (F      MOV      r0,r5
        0x00000a62:    f7ffffd5    ....    BL       PDMA_EnableTimeout ; 0xa10
        0x00000a66:    2302        .#      MOVS     r3,#2
        0x00000a68:    031a        ..      LSLS     r2,r3,#12
        0x00000a6a:    2100        .!      MOVS     r1,#0
        0x00000a6c:    4628        (F      MOV      r0,r5
        0x00000a6e:    f000f883    ....    BL       PDMA_SetTransferCnt ; 0xb78
        0x00000a72:    69e0        .i      LDR      r0,[r4,#0x1c]
        0x00000a74:    2502        .%      MOVS     r5,#2
        0x00000a76:    07c1        ..      LSLS     r1,r0,#31
        0x00000a78:    2900        .)      CMP      r1,#0
        0x00000a7a:    d007        ..      BEQ      0xa8c ; PDMA_IRQHandler + 108
        0x00000a7c:    6a20         j      LDR      r0,[r4,#0x20]
        0x00000a7e:    0780        ..      LSLS     r0,r0,#30
        0x00000a80:    d502        ..      BPL      0xa88 ; PDMA_IRQHandler + 104
        0x00000a82:    a00c        ..      ADR      r0,{pc}+0x32 ; 0xab4
        0x00000a84:    f000fe1e    ....    BL       __0printf ; 0x16c4
        0x00000a88:    6225        %b      STR      r5,[r4,#0x20]
        0x00000a8a:    bd70        p.      POP      {r4-r6,pc}
        0x00000a8c:    0780        ..      LSLS     r0,r0,#30
        0x00000a8e:    d509        ..      BPL      0xaa4 ; PDMA_IRQHandler + 132
        0x00000a90:    6a60        `j      LDR      r0,[r4,#0x24]
        0x00000a92:    0780        ..      LSLS     r0,r0,#30
        0x00000a94:    d504        ..      BPL      0xaa0 ; PDMA_IRQHandler + 128
        0x00000a96:    4909        .I      LDR      r1,[pc,#36] ; [0xabc] = 0x40050020
        0x00000a98:    2001        .       MOVS     r0,#1
        0x00000a9a:    6188        .a      STR      r0,[r1,#0x18]
        0x00000a9c:    f000f94a    ..J.    BL       PDMA_TimerCapture_Process ; 0xd34
        0x00000aa0:    6265        eb      STR      r5,[r4,#0x24]
        0x00000aa2:    bd70        p.      POP      {r4-r6,pc}
        0x00000aa4:    a006        ..      ADR      r0,{pc}+0x1c ; 0xac0
        0x00000aa6:    f000fe0d    ....    BL       __0printf ; 0x16c4
        0x00000aaa:    bd70        p.      POP      {r4-r6,pc}
    $d
        0x00000aac:    40008400    ...@    DCD    1073775616
        0x00000ab0:    40008000    ...@    DCD    1073774592
        0x00000ab4:    726f6261    abor    DCD    1919902305
        0x00000ab8:    000a0d74    t...    DCD    658804
        0x00000abc:    40050020     ..@    DCD    1074069536
        0x00000ac0:    6e6b6e75    unkn    DCD    1852534389
        0x00000ac4:    206e776f    own     DCD    544110447
        0x00000ac8:    65746e69    inte    DCD    1702129257
        0x00000acc:    70757272    rrup    DCD    1886745202
        0x00000ad0:    21212074    t !!    DCD    555819124
        0x00000ad4:    0000000a    ....    DCD    10
    $t
    i.PDMA_Open
    PDMA_Open
        0x00000ad8:    b570        p.      PUSH     {r4-r6,lr}
        0x00000ada:    2200        ."      MOVS     r2,#0
        0x00000adc:    4d09        .M      LDR      r5,[pc,#36] ; [0xb04] = 0x20000028
        0x00000ade:    2601        .&      MOVS     r6,#1
        0x00000ae0:    4613        .F      MOV      r3,r2
        0x00000ae2:    4634        4F      MOV      r4,r6
        0x00000ae4:    4094        .@      LSLS     r4,r4,r2
        0x00000ae6:    420c        .B      TST      r4,r1
        0x00000ae8:    d002        ..      BEQ      0xaf0 ; PDMA_Open + 24
        0x00000aea:    0114        ..      LSLS     r4,r2,#4
        0x00000aec:    5103        .Q      STR      r3,[r0,r4]
        0x00000aee:    54ab        .T      STRB     r3,[r5,r2]
        0x00000af0:    1c52        R.      ADDS     r2,r2,#1
        0x00000af2:    2a09        .*      CMP      r2,#9
        0x00000af4:    d3f5        ..      BCC      0xae2 ; PDMA_Open + 10
        0x00000af6:    2201        ."      MOVS     r2,#1
        0x00000af8:    0292        ..      LSLS     r2,r2,#10
        0x00000afa:    1880        ..      ADDS     r0,r0,r2
        0x00000afc:    6802        .h      LDR      r2,[r0,#0]
        0x00000afe:    430a        .C      ORRS     r2,r2,r1
        0x00000b00:    6002        .`      STR      r2,[r0,#0]
        0x00000b02:    bd70        p.      POP      {r4-r6,pc}
    $d
        0x00000b04:    20000028    (..     DCD    536870952
    $t
    i.PDMA_SetBurstType
    PDMA_SetBurstType
        0x00000b08:    b530        0.      PUSH     {r4,r5,lr}
        0x00000b0a:    0109        ..      LSLS     r1,r1,#4
        0x00000b0c:    5844        DX      LDR      r4,[r0,r1]
        0x00000b0e:    2574        t%      MOVS     r5,#0x74
        0x00000b10:    43ac        .C      BICS     r4,r4,r5
        0x00000b12:    5044        DP      STR      r4,[r0,r1]
        0x00000b14:    5844        DX      LDR      r4,[r0,r1]
        0x00000b16:    431a        .C      ORRS     r2,r2,r3
        0x00000b18:    4314        .C      ORRS     r4,r4,r2
        0x00000b1a:    5044        DP      STR      r4,[r0,r1]
        0x00000b1c:    bd30        0.      POP      {r4,r5,pc}
    i.PDMA_SetTimeOut
    PDMA_SetTimeOut
        0x00000b1e:    b510        ..      PUSH     {r4,lr}
        0x00000b20:    2401        .$      MOVS     r4,#1
        0x00000b22:    02a4        ..      LSLS     r4,r4,#10
        0x00000b24:    1900        ..      ADDS     r0,r0,r4
        0x00000b26:    2900        .)      CMP      r1,#0
        0x00000b28:    d002        ..      BEQ      0xb30 ; PDMA_SetTimeOut + 18
        0x00000b2a:    2901        .)      CMP      r1,#1
        0x00000b2c:    d109        ..      BNE      0xb42 ; PDMA_SetTimeOut + 36
        0x00000b2e:    e003        ..      B        0xb38 ; PDMA_SetTimeOut + 26
        0x00000b30:    6c04        .l      LDR      r4,[r0,#0x40]
        0x00000b32:    0c24        $.      LSRS     r4,r4,#16
        0x00000b34:    0424        $.      LSLS     r4,r4,#16
        0x00000b36:    e002        ..      B        0xb3e ; PDMA_SetTimeOut + 32
        0x00000b38:    6c04        .l      LDR      r4,[r0,#0x40]
        0x00000b3a:    041b        ..      LSLS     r3,r3,#16
        0x00000b3c:    b2a4        ..      UXTH     r4,r4
        0x00000b3e:    431c        .C      ORRS     r4,r4,r3
        0x00000b40:    6404        .d      STR      r4,[r0,#0x40]
        0x00000b42:    2301        .#      MOVS     r3,#1
        0x00000b44:    408b        .@      LSLS     r3,r3,r1
        0x00000b46:    6b41        Ak      LDR      r1,[r0,#0x34]
        0x00000b48:    2a00        .*      CMP      r2,#0
        0x00000b4a:    d001        ..      BEQ      0xb50 ; PDMA_SetTimeOut + 50
        0x00000b4c:    4319        .C      ORRS     r1,r1,r3
        0x00000b4e:    e000        ..      B        0xb52 ; PDMA_SetTimeOut + 52
        0x00000b50:    4399        .C      BICS     r1,r1,r3
        0x00000b52:    6341        Ac      STR      r1,[r0,#0x34]
        0x00000b54:    bd10        ..      POP      {r4,pc}
    i.PDMA_SetTransferAddr
    PDMA_SetTransferAddr
        0x00000b56:    b570        p.      PUSH     {r4-r6,lr}
        0x00000b58:    0109        ..      LSLS     r1,r1,#4
        0x00000b5a:    180e        ..      ADDS     r6,r1,r0
        0x00000b5c:    9d04        ..      LDR      r5,[sp,#0x10]
        0x00000b5e:    9c05        ..      LDR      r4,[sp,#0x14]
        0x00000b60:    6072        r`      STR      r2,[r6,#4]
        0x00000b62:    60b5        .`      STR      r5,[r6,#8]
        0x00000b64:    5842        BX      LDR      r2,[r0,r1]
        0x00000b66:    250f        .%      MOVS     r5,#0xf
        0x00000b68:    022d        -.      LSLS     r5,r5,#8
        0x00000b6a:    43aa        .C      BICS     r2,r2,r5
        0x00000b6c:    5042        BP      STR      r2,[r0,r1]
        0x00000b6e:    5842        BX      LDR      r2,[r0,r1]
        0x00000b70:    4323        #C      ORRS     r3,r3,r4
        0x00000b72:    431a        .C      ORRS     r2,r2,r3
        0x00000b74:    5042        BP      STR      r2,[r0,r1]
        0x00000b76:    bd70        p.      POP      {r4-r6,pc}
    i.PDMA_SetTransferCnt
    PDMA_SetTransferCnt
        0x00000b78:    b530        0.      PUSH     {r4,r5,lr}
        0x00000b7a:    0109        ..      LSLS     r1,r1,#4
        0x00000b7c:    5844        DX      LDR      r4,[r0,r1]
        0x00000b7e:    4d06        .M      LDR      r5,[pc,#24] ; [0xb98] = 0xcfff
        0x00000b80:    402c        ,@      ANDS     r4,r4,r5
        0x00000b82:    5044        DP      STR      r4,[r0,r1]
        0x00000b84:    5844        DX      LDR      r4,[r0,r1]
        0x00000b86:    2501        .%      MOVS     r5,#1
        0x00000b88:    041b        ..      LSLS     r3,r3,#16
        0x00000b8a:    042d        -.      LSLS     r5,r5,#16
        0x00000b8c:    1b5b        [.      SUBS     r3,r3,r5
        0x00000b8e:    4313        .C      ORRS     r3,r3,r2
        0x00000b90:    431c        .C      ORRS     r4,r4,r3
        0x00000b92:    5044        DP      STR      r4,[r0,r1]
        0x00000b94:    bd30        0.      POP      {r4,r5,pc}
    $d
        0x00000b96:    0000        ..      DCW    0
        0x00000b98:    0000cfff    ....    DCD    53247
    $t
    i.PDMA_SetTransferMode
    PDMA_SetTransferMode
        0x00000b9c:    b5ff        ..      PUSH     {r0-r7,lr}
        0x00000b9e:    4b2f        /K      LDR      r3,[pc,#188] ; [0xc5c] = 0x20000028
        0x00000ba0:    0217        ..      LSLS     r7,r2,#8
        0x00000ba2:    545a        ZT      STRB     r2,[r3,r1]
        0x00000ba4:    2309        .#      MOVS     r3,#9
        0x00000ba6:    01db        ..      LSLS     r3,r3,#7
        0x00000ba8:    18c4        ..      ADDS     r4,r0,r3
        0x00000baa:    0416        ..      LSLS     r6,r2,#16
        0x00000bac:    0615        ..      LSLS     r5,r2,#24
        0x00000bae:    000b        ..      MOVS     r3,r1
        0x00000bb0:    f000fdaf    ....    BL       __ARM_common_switch8 ; 0x1712
    $d
        0x00000bb4:    120c0609    ....    DCD    302777865
        0x00000bb8:    2b251f19    ..%+    DCD    723853081
        0x00000bbc:    003d3832    28=.    DCD    4012082
    $t
        0x00000bc0:    6823        #h      LDR      r3,[r4,#0]
        0x00000bc2:    099b        ..      LSRS     r3,r3,#6
        0x00000bc4:    019b        ..      LSLS     r3,r3,#6
        0x00000bc6:    4313        .C      ORRS     r3,r3,r2
        0x00000bc8:    6023        #`      STR      r3,[r4,#0]
        0x00000bca:    e030        0.      B        0xc2e ; PDMA_SetTransferMode + 146
        0x00000bcc:    6822        "h      LDR      r2,[r4,#0]
        0x00000bce:    233f        ?#      MOVS     r3,#0x3f
        0x00000bd0:    021b        ..      LSLS     r3,r3,#8
        0x00000bd2:    439a        .C      BICS     r2,r2,r3
        0x00000bd4:    433a        :C      ORRS     r2,r2,r7
        0x00000bd6:    e004        ..      B        0xbe2 ; PDMA_SetTransferMode + 70
        0x00000bd8:    6822        "h      LDR      r2,[r4,#0]
        0x00000bda:    233f        ?#      MOVS     r3,#0x3f
        0x00000bdc:    041b        ..      LSLS     r3,r3,#16
        0x00000bde:    439a        .C      BICS     r2,r2,r3
        0x00000be0:    4332        2C      ORRS     r2,r2,r6
        0x00000be2:    6022        "`      STR      r2,[r4,#0]
        0x00000be4:    e023        #.      B        0xc2e ; PDMA_SetTransferMode + 146
        0x00000be6:    6822        "h      LDR      r2,[r4,#0]
        0x00000be8:    233f        ?#      MOVS     r3,#0x3f
        0x00000bea:    061b        ..      LSLS     r3,r3,#24
        0x00000bec:    439a        .C      BICS     r2,r2,r3
        0x00000bee:    432a        *C      ORRS     r2,r2,r5
        0x00000bf0:    e7f7        ..      B        0xbe2 ; PDMA_SetTransferMode + 70
        0x00000bf2:    6863        ch      LDR      r3,[r4,#4]
        0x00000bf4:    099b        ..      LSRS     r3,r3,#6
        0x00000bf6:    019b        ..      LSLS     r3,r3,#6
        0x00000bf8:    4313        .C      ORRS     r3,r3,r2
        0x00000bfa:    6063        c`      STR      r3,[r4,#4]
        0x00000bfc:    e017        ..      B        0xc2e ; PDMA_SetTransferMode + 146
        0x00000bfe:    6862        bh      LDR      r2,[r4,#4]
        0x00000c00:    233f        ?#      MOVS     r3,#0x3f
        0x00000c02:    021b        ..      LSLS     r3,r3,#8
        0x00000c04:    439a        .C      BICS     r2,r2,r3
        0x00000c06:    433a        :C      ORRS     r2,r2,r7
        0x00000c08:    e004        ..      B        0xc14 ; PDMA_SetTransferMode + 120
        0x00000c0a:    6862        bh      LDR      r2,[r4,#4]
        0x00000c0c:    233f        ?#      MOVS     r3,#0x3f
        0x00000c0e:    041b        ..      LSLS     r3,r3,#16
        0x00000c10:    439a        .C      BICS     r2,r2,r3
        0x00000c12:    4332        2C      ORRS     r2,r2,r6
        0x00000c14:    6062        b`      STR      r2,[r4,#4]
        0x00000c16:    e00a        ..      B        0xc2e ; PDMA_SetTransferMode + 146
        0x00000c18:    6862        bh      LDR      r2,[r4,#4]
        0x00000c1a:    233f        ?#      MOVS     r3,#0x3f
        0x00000c1c:    061b        ..      LSLS     r3,r3,#24
        0x00000c1e:    439a        .C      BICS     r2,r2,r3
        0x00000c20:    432a        *C      ORRS     r2,r2,r5
        0x00000c22:    e7f7        ..      B        0xc14 ; PDMA_SetTransferMode + 120
        0x00000c24:    68a3        .h      LDR      r3,[r4,#8]
        0x00000c26:    099b        ..      LSRS     r3,r3,#6
        0x00000c28:    019b        ..      LSLS     r3,r3,#6
        0x00000c2a:    4313        .C      ORRS     r3,r3,r2
        0x00000c2c:    60a3        .`      STR      r3,[r4,#8]
        0x00000c2e:    9a03        ..      LDR      r2,[sp,#0xc]
        0x00000c30:    0109        ..      LSLS     r1,r1,#4
        0x00000c32:    2a00        .*      CMP      r2,#0
        0x00000c34:    5842        BX      LDR      r2,[r0,r1]
        0x00000c36:    d00c        ..      BEQ      0xc52 ; PDMA_SetTransferMode + 182
        0x00000c38:    0892        ..      LSRS     r2,r2,#2
        0x00000c3a:    0092        ..      LSLS     r2,r2,#2
        0x00000c3c:    1c92        ..      ADDS     r2,r2,#2
        0x00000c3e:    5042        BP      STR      r2,[r0,r1]
        0x00000c40:    2201        ."      MOVS     r2,#1
        0x00000c42:    0292        ..      LSLS     r2,r2,#10
        0x00000c44:    1882        ..      ADDS     r2,r0,r2
        0x00000c46:    6bd3        .k      LDR      r3,[r2,#0x3c]
        0x00000c48:    9a09        ..      LDR      r2,[sp,#0x24]
        0x00000c4a:    1ad2        ..      SUBS     r2,r2,r3
        0x00000c4c:    1808        ..      ADDS     r0,r1,r0
        0x00000c4e:    60c2        .`      STR      r2,[r0,#0xc]
        0x00000c50:    bdff        ..      POP      {r0-r7,pc}
        0x00000c52:    0892        ..      LSRS     r2,r2,#2
        0x00000c54:    0092        ..      LSLS     r2,r2,#2
        0x00000c56:    1c52        R.      ADDS     r2,r2,#1
        0x00000c58:    5042        BP      STR      r2,[r0,r1]
        0x00000c5a:    bdff        ..      POP      {r0-r7,pc}
    $d
        0x00000c5c:    20000028    (..     DCD    536870952
    $t
    i.PDMA_TimerCapture_Init
    PDMA_TimerCapture_Init
        0x00000c60:    b57c        |.      PUSH     {r2-r6,lr}
        0x00000c62:    4c2f        /L      LDR      r4,[pc,#188] ; [0xd20] = 0x40050020
        0x00000c64:    2103        .!      MOVS     r1,#3
        0x00000c66:    2201        ."      MOVS     r2,#1
        0x00000c68:    06c9        ..      LSLS     r1,r1,#27
        0x00000c6a:    4620         F      MOV      r0,r4
        0x00000c6c:    f000fb0c    ....    BL       TIMER_Open ; 0x1288
        0x00000c70:    482b        +H      LDR      r0,[pc,#172] ; [0xd20] = 0x40050020
        0x00000c72:    3820         8      SUBS     r0,r0,#0x20
        0x00000c74:    6a01        .j      LDR      r1,[r0,#0x20]
        0x00000c76:    22ff        ."      MOVS     r2,#0xff
        0x00000c78:    4311        .C      ORRS     r1,r1,r2
        0x00000c7a:    6201        .b      STR      r1,[r0,#0x20]
        0x00000c7c:    4929        )I      LDR      r1,[pc,#164] ; [0xd24] = 0xffffff
        0x00000c7e:    6241        Ab      STR      r1,[r0,#0x24]
        0x00000c80:    2200        ."      MOVS     r2,#0
        0x00000c82:    4611        .F      MOV      r1,r2
        0x00000c84:    4620         F      MOV      r0,r4
        0x00000c86:    f000fabd    ....    BL       TIMER_EnableCapture ; 0x1204
        0x00000c8a:    2101        .!      MOVS     r1,#1
        0x00000c8c:    0489        ..      LSLS     r1,r1,#18
        0x00000c8e:    4620         F      MOV      r0,r4
        0x00000c90:    f000fb1a    ....    BL       TIMER_SetTriggerSource ; 0x12c8
        0x00000c94:    15a1        ..      ASRS     r1,r4,#22
        0x00000c96:    4620         F      MOV      r0,r4
        0x00000c98:    f000fb1e    ....    BL       TIMER_SetTriggerTarget ; 0x12d8
        0x00000c9c:    4d22        "M      LDR      r5,[pc,#136] ; [0xd28] = 0x40008000
        0x00000c9e:    2102        .!      MOVS     r1,#2
        0x00000ca0:    4628        (F      MOV      r0,r5
        0x00000ca2:    f7ffff19    ....    BL       PDMA_Open ; 0xad8
        0x00000ca6:    2302        .#      MOVS     r3,#2
        0x00000ca8:    031a        ..      LSLS     r2,r3,#12
        0x00000caa:    2101        .!      MOVS     r1,#1
        0x00000cac:    4628        (F      MOV      r0,r5
        0x00000cae:    f7ffff63    ..c.    BL       PDMA_SetTransferCnt ; 0xb78
        0x00000cb2:    481e        .H      LDR      r0,[pc,#120] ; [0xd2c] = 0x20000020
        0x00000cb4:    4a1a        .J      LDR      r2,[pc,#104] ; [0xd20] = 0x40050020
        0x00000cb6:    2600        .&      MOVS     r6,#0
        0x00000cb8:    2303        .#      MOVS     r3,#3
        0x00000cba:    9000        ..      STR      r0,[sp,#0]
        0x00000cbc:    021b        ..      LSLS     r3,r3,#8
        0x00000cbe:    3210        .2      ADDS     r2,r2,#0x10
        0x00000cc0:    2101        .!      MOVS     r1,#1
        0x00000cc2:    9601        ..      STR      r6,[sp,#4]
        0x00000cc4:    4628        (F      MOV      r0,r5
        0x00000cc6:    f7ffff46    ..F.    BL       PDMA_SetTransferAddr ; 0xb56
        0x00000cca:    2300        .#      MOVS     r3,#0
        0x00000ccc:    2221        !"      MOVS     r2,#0x21
        0x00000cce:    2101        .!      MOVS     r1,#1
        0x00000cd0:    4628        (F      MOV      r0,r5
        0x00000cd2:    9600        ..      STR      r6,[sp,#0]
        0x00000cd4:    f7ffff62    ..b.    BL       PDMA_SetTransferMode ; 0xb9c
        0x00000cd8:    2300        .#      MOVS     r3,#0
        0x00000cda:    2204        ."      MOVS     r2,#4
        0x00000cdc:    2101        .!      MOVS     r1,#1
        0x00000cde:    4628        (F      MOV      r0,r5
        0x00000ce0:    f7ffff12    ....    BL       PDMA_SetBurstType ; 0xb08
        0x00000ce4:    f7fffd36    ..6.    BL       CLK_GetCPUFreq ; 0x754
        0x00000ce8:    217d        }!      MOVS     r1,#0x7d
        0x00000cea:    0bc0        ..      LSRS     r0,r0,#15
        0x00000cec:    00c9        ..      LSLS     r1,r1,#3
        0x00000cee:    f7fffa2d    ..-.    BL       __aeabi_uidiv ; 0x14c
        0x00000cf2:    4603        .F      MOV      r3,r0
        0x00000cf4:    2201        ."      MOVS     r2,#1
        0x00000cf6:    4611        .F      MOV      r1,r2
        0x00000cf8:    4628        (F      MOV      r0,r5
        0x00000cfa:    f7ffff10    ....    BL       PDMA_SetTimeOut ; 0xb1e
        0x00000cfe:    2102        .!      MOVS     r1,#2
        0x00000d00:    4628        (F      MOV      r0,r5
        0x00000d02:    f7fffe85    ....    BL       PDMA_EnableTimeout ; 0xa10
        0x00000d06:    2200        ."      MOVS     r2,#0
        0x00000d08:    2101        .!      MOVS     r1,#1
        0x00000d0a:    4628        (F      MOV      r0,r5
        0x00000d0c:    f7fffe67    ..g.    BL       PDMA_EnableInt ; 0x9de
        0x00000d10:    4907        .I      LDR      r1,[pc,#28] ; [0xd30] = 0xe000e100
        0x00000d12:    0560        `.      LSLS     r0,r4,#21
        0x00000d14:    6008        .`      STR      r0,[r1,#0]
        0x00000d16:    6820         h      LDR      r0,[r4,#0]
        0x00000d18:    0589        ..      LSLS     r1,r1,#22
        0x00000d1a:    4308        .C      ORRS     r0,r0,r1
        0x00000d1c:    6020         `      STR      r0,[r4,#0]
        0x00000d1e:    bd7c        |.      POP      {r2-r6,pc}
    $d
        0x00000d20:    40050020     ..@    DCD    1074069536
        0x00000d24:    00ffffff    ....    DCD    16777215
        0x00000d28:    40008000    ...@    DCD    1073774592
        0x00000d2c:    20000020     ..     DCD    536870944
        0x00000d30:    e000e100    ....    DCD    3758153984
    $t
    i.PDMA_TimerCapture_Process
    PDMA_TimerCapture_Process
        0x00000d34:    b5f0        ..      PUSH     {r4-r7,lr}
        0x00000d36:    2000        .       MOVS     r0,#0
        0x00000d38:    b085        ..      SUB      sp,sp,#0x14
        0x00000d3a:    9000        ..      STR      r0,[sp,#0]
        0x00000d3c:    2401        .$      MOVS     r4,#1
        0x00000d3e:    9001        ..      STR      r0,[sp,#4]
        0x00000d40:    4815        .H      LDR      r0,[pc,#84] ; [0xd98] = 0x20000020
        0x00000d42:    00a6        ..      LSLS     r6,r4,#2
        0x00000d44:    5981        .Y      LDR      r1,[r0,r6]
        0x00000d46:    1835        5.      ADDS     r5,r6,r0
        0x00000d48:    3d80        .=      SUBS     r5,r5,#0x80
        0x00000d4a:    6fea        .o      LDR      r2,[r5,#0x7c]
        0x00000d4c:    1a89        ..      SUBS     r1,r1,r2
        0x00000d4e:    9100        ..      STR      r1,[sp,#0]
        0x00000d50:    4912        .I      LDR      r1,[pc,#72] ; [0xd9c] = 0x20000000
        0x00000d52:    6809        .h      LDR      r1,[r1,#0]
        0x00000d54:    0a09        ..      LSRS     r1,r1,#8
        0x00000d56:    9101        ..      STR      r1,[sp,#4]
        0x00000d58:    5980        .Y      LDR      r0,[r0,r6]
        0x00000d5a:    6fe9        .o      LDR      r1,[r5,#0x7c]
        0x00000d5c:    4288        .B      CMP      r0,r1
        0x00000d5e:    d914        ..      BLS      0xd8a ; PDMA_TimerCapture_Process + 86
        0x00000d60:    9800        ..      LDR      r0,[sp,#0]
        0x00000d62:    f7fffaa5    ....    BL       __aeabi_ui2d ; 0x2b0
        0x00000d66:    4607        .F      MOV      r7,r0
        0x00000d68:    9102        ..      STR      r1,[sp,#8]
        0x00000d6a:    9801        ..      LDR      r0,[sp,#4]
        0x00000d6c:    f7fffaa0    ....    BL       __aeabi_ui2d ; 0x2b0
        0x00000d70:    463a        :F      MOV      r2,r7
        0x00000d72:    9b02        ..      LDR      r3,[sp,#8]
        0x00000d74:    f7fffa24    ..$.    BL       __aeabi_ddiv ; 0x1c0
        0x00000d78:    9002        ..      STR      r0,[sp,#8]
        0x00000d7a:    9103        ..      STR      r1,[sp,#0xc]
        0x00000d7c:    4806        .H      LDR      r0,[pc,#24] ; [0xd98] = 0x20000020
        0x00000d7e:    6fea        .o      LDR      r2,[r5,#0x7c]
        0x00000d80:    5981        .Y      LDR      r1,[r0,r6]
        0x00000d82:    a007        ..      ADR      r0,{pc}+0x1e ; 0xda0
        0x00000d84:    9b01        ..      LDR      r3,[sp,#4]
        0x00000d86:    f000fc9d    ....    BL       __0printf ; 0x16c4
        0x00000d8a:    1c64        d.      ADDS     r4,r4,#1
        0x00000d8c:    2c02        .,      CMP      r4,#2
        0x00000d8e:    d3d7        ..      BCC      0xd40 ; PDMA_TimerCapture_Process + 12
        0x00000d90:    f000f822    ..".    BL       PDMA_TimerCapture_Start ; 0xdd8
        0x00000d94:    b005        ..      ADD      sp,sp,#0x14
        0x00000d96:    bdf0        ..      POP      {r4-r7,pc}
    $d
        0x00000d98:    20000020     ..     DCD    536870944
        0x00000d9c:    20000000    ...     DCD    536870912
        0x00000da0:    20643825    %8d     DCD    543438885
        0x00000da4:    3825202c    , %8    DCD    941957164
        0x00000da8:    202c2064    d ,     DCD    539762788
        0x00000dac:    636f6c63    cloc    DCD    1668246627
        0x00000db0:    203a206b    k :     DCD    540680299
        0x00000db4:    20643625    %6d     DCD    543438373
        0x00000db8:    6944202c    , Di    DCD    1766072364
        0x00000dbc:    203a6666    ff:     DCD    540698214
        0x00000dc0:    2e643925    %9d.    DCD    778320165
        0x00000dc4:    65724620     Fre    DCD    1701987872
        0x00000dc8:    25203a71    q: %    DCD    622869105
        0x00000dcc:    2066322e    .2f     DCD    543568430
        0x00000dd0:    0a0d7a48    Hz..    DCD    168655432
        0x00000dd4:    00000000    ....    DCD    0
    $t
    i.PDMA_TimerCapture_Start
    PDMA_TimerCapture_Start
        0x00000dd8:    b57c        |.      PUSH     {r2-r6,lr}
        0x00000dda:    4d10        .M      LDR      r5,[pc,#64] ; [0xe1c] = 0x40008000
        0x00000ddc:    2302        .#      MOVS     r3,#2
        0x00000dde:    031a        ..      LSLS     r2,r3,#12
        0x00000de0:    2101        .!      MOVS     r1,#1
        0x00000de2:    4628        (F      MOV      r0,r5
        0x00000de4:    f7fffec8    ....    BL       PDMA_SetTransferCnt ; 0xb78
        0x00000de8:    490d        .I      LDR      r1,[pc,#52] ; [0xe20] = 0x20000020
        0x00000dea:    2400        .$      MOVS     r4,#0
        0x00000dec:    2303        .#      MOVS     r3,#3
        0x00000dee:    9100        ..      STR      r1,[sp,#0]
        0x00000df0:    021b        ..      LSLS     r3,r3,#8
        0x00000df2:    4a0c        .J      LDR      r2,[pc,#48] ; [0xe24] = 0x40050030
        0x00000df4:    9401        ..      STR      r4,[sp,#4]
        0x00000df6:    2101        .!      MOVS     r1,#1
        0x00000df8:    4628        (F      MOV      r0,r5
        0x00000dfa:    f7fffeac    ....    BL       PDMA_SetTransferAddr ; 0xb56
        0x00000dfe:    2300        .#      MOVS     r3,#0
        0x00000e00:    2221        !"      MOVS     r2,#0x21
        0x00000e02:    2101        .!      MOVS     r1,#1
        0x00000e04:    4628        (F      MOV      r0,r5
        0x00000e06:    9400        ..      STR      r4,[sp,#0]
        0x00000e08:    f7fffec8    ....    BL       PDMA_SetTransferMode ; 0xb9c
        0x00000e0c:    2300        .#      MOVS     r3,#0
        0x00000e0e:    2204        ."      MOVS     r2,#4
        0x00000e10:    2101        .!      MOVS     r1,#1
        0x00000e12:    4628        (F      MOV      r0,r5
        0x00000e14:    f7fffe78    ..x.    BL       PDMA_SetBurstType ; 0xb08
        0x00000e18:    bd7c        |.      POP      {r2-r6,pc}
    $d
        0x00000e1a:    0000        ..      DCW    0
        0x00000e1c:    40008000    ...@    DCD    1073774592
        0x00000e20:    20000020     ..     DCD    536870944
        0x00000e24:    40050030    0..@    DCD    1074069552
    $t
    i.PWM0_Init
    PWM0_Init
        0x00000e28:    b5f8        ..      PUSH     {r3-r7,lr}
        0x00000e2a:    4c1c        .L      LDR      r4,[pc,#112] ; [0xe9c] = 0x40058000
        0x00000e2c:    2332        2#      MOVS     r3,#0x32
        0x00000e2e:    2264        d"      MOVS     r2,#0x64
        0x00000e30:    2100        .!      MOVS     r1,#0
        0x00000e32:    4620         F      MOV      r0,r4
        0x00000e34:    f000f836    ..6.    BL       PWM_ConfigOutputChannel ; 0xea4
        0x00000e38:    2101        .!      MOVS     r1,#1
        0x00000e3a:    4620         F      MOV      r0,r4
        0x00000e3c:    f000f8c0    ....    BL       PWM_EnableOutput ; 0xfc0
        0x00000e40:    2000        .       MOVS     r0,#0
        0x00000e42:    2701        .'      MOVS     r7,#1
        0x00000e44:    4639        9F      MOV      r1,r7
        0x00000e46:    4081        .@      LSLS     r1,r1,r0
        0x00000e48:    07c9        ..      LSLS     r1,r1,#31
        0x00000e4a:    d01a        ..      BEQ      0xe82 ; PWM0_Init + 90
        0x00000e4c:    4913        .I      LDR      r1,[pc,#76] ; [0xe9c] = 0x40058000
        0x00000e4e:    3180        .1      ADDS     r1,r1,#0x80
        0x00000e50:    6b0b        .k      LDR      r3,[r1,#0x30]
        0x00000e52:    2603        .&      MOVS     r6,#3
        0x00000e54:    0042        B.      LSLS     r2,r0,#1
        0x00000e56:    4634        4F      MOV      r4,r6
        0x00000e58:    4094        .@      LSLS     r4,r4,r2
        0x00000e5a:    43a3        .C      BICS     r3,r3,r4
        0x00000e5c:    630b        .c      STR      r3,[r1,#0x30]
        0x00000e5e:    6b0d        .k      LDR      r5,[r1,#0x30]
        0x00000e60:    4633        3F      MOV      r3,r6
        0x00000e62:    3210        .2      ADDS     r2,r2,#0x10
        0x00000e64:    4093        .@      LSLS     r3,r3,r2
        0x00000e66:    2602        .&      MOVS     r6,#2
        0x00000e68:    439d        .C      BICS     r5,r5,r3
        0x00000e6a:    4096        .@      LSLS     r6,r6,r2
        0x00000e6c:    4335        5C      ORRS     r5,r5,r6
        0x00000e6e:    630d        .c      STR      r5,[r1,#0x30]
        0x00000e70:    6b4d        Mk      LDR      r5,[r1,#0x34]
        0x00000e72:    43a5        .C      BICS     r5,r5,r4
        0x00000e74:    634d        Mc      STR      r5,[r1,#0x34]
        0x00000e76:    6b4c        Lk      LDR      r4,[r1,#0x34]
        0x00000e78:    439c        .C      BICS     r4,r4,r3
        0x00000e7a:    463b        ;F      MOV      r3,r7
        0x00000e7c:    4093        .@      LSLS     r3,r3,r2
        0x00000e7e:    431c        .C      ORRS     r4,r4,r3
        0x00000e80:    634c        Lc      STR      r4,[r1,#0x34]
        0x00000e82:    1c40        @.      ADDS     r0,r0,#1
        0x00000e84:    2806        .(      CMP      r0,#6
        0x00000e86:    dbdd        ..      BLT      0xe44 ; PWM0_Init + 28
        0x00000e88:    2101        .!      MOVS     r1,#1
        0x00000e8a:    4804        .H      LDR      r0,[pc,#16] ; [0xe9c] = 0x40058000
        0x00000e8c:    f000f89d    ....    BL       PWM_Start ; 0xfca
        0x00000e90:    4903        .I      LDR      r1,[pc,#12] ; [0xea0] = 0x20000010
        0x00000e92:    6888        .h      LDR      r0,[r1,#8]
        0x00000e94:    2210        ."      MOVS     r2,#0x10
        0x00000e96:    4310        .C      ORRS     r0,r0,r2
        0x00000e98:    6088        .`      STR      r0,[r1,#8]
        0x00000e9a:    bdf8        ..      POP      {r3-r7,pc}
    $d
        0x00000e9c:    40058000    ...@    DCD    1074102272
        0x00000ea0:    20000010    ...     DCD    536870928
    $t
    i.PWM_ConfigOutputChannel
    PWM_ConfigOutputChannel
        0x00000ea4:    b5ff        ..      PUSH     {r0-r7,lr}
        0x00000ea6:    4604        .F      MOV      r4,r0
        0x00000ea8:    4842        BH      LDR      r0,[pc,#264] ; [0xfb4] = 0x40000200
        0x00000eaa:    4e41        AN      LDR      r6,[pc,#260] ; [0xfb0] = 0x40058000
        0x00000eac:    2501        .%      MOVS     r5,#1
        0x00000eae:    4f3f        ?O      LDR      r7,[pc,#252] ; [0xfac] = 0xffff
        0x00000eb0:    2102        .!      MOVS     r1,#2
        0x00000eb2:    6980        .i      LDR      r0,[r0,#0x18]
        0x00000eb4:    b083        ..      SUB      sp,sp,#0xc
        0x00000eb6:    42b4        .B      CMP      r4,r6
        0x00000eb8:    d101        ..      BNE      0xebe ; PWM_ConfigOutputChannel + 26
        0x00000eba:    4028        (@      ANDS     r0,r0,r5
        0x00000ebc:    e000        ..      B        0xec0 ; PWM_ConfigOutputChannel + 28
        0x00000ebe:    4008        .@      ANDS     r0,r0,r1
        0x00000ec0:    2800        .(      CMP      r0,#0
        0x00000ec2:    d006        ..      BEQ      0xed2 ; PWM_ConfigOutputChannel + 46
        0x00000ec4:    f000f91e    ....    BL       SystemCoreClockUpdate ; 0x1104
        0x00000ec8:    42b4        .B      CMP      r4,r6
        0x00000eca:    d105        ..      BNE      0xed8 ; PWM_ConfigOutputChannel + 52
        0x00000ecc:    f7fffc60    ..`.    BL       CLK_GetPCLK0Freq ; 0x790
        0x00000ed0:    e004        ..      B        0xedc ; PWM_ConfigOutputChannel + 56
        0x00000ed2:    f7fffca9    ....    BL       CLK_GetPLLClockFreq ; 0x828
        0x00000ed6:    e001        ..      B        0xedc ; PWM_ConfigOutputChannel + 56
        0x00000ed8:    f7fffc6a    ..j.    BL       CLK_GetPCLK1Freq ; 0x7b0
        0x00000edc:    4606        .F      MOV      r6,r0
        0x00000ede:    9905        ..      LDR      r1,[sp,#0x14]
        0x00000ee0:    f7fff934    ..4.    BL       __aeabi_uidiv ; 0x14c
        0x00000ee4:    9000        ..      STR      r0,[sp,#0]
        0x00000ee6:    4629        )F      MOV      r1,r5
        0x00000ee8:    f7fff930    ..0.    BL       __aeabi_uidiv ; 0x14c
        0x00000eec:    2101        .!      MOVS     r1,#1
        0x00000eee:    0409        ..      LSLS     r1,r1,#16
        0x00000ef0:    4288        .B      CMP      r0,r1
        0x00000ef2:    d801        ..      BHI      0xef8 ; PWM_ConfigOutputChannel + 84
        0x00000ef4:    b287        ..      UXTH     r7,r0
        0x00000ef6:    e006        ..      B        0xf06 ; PWM_ConfigOutputChannel + 98
        0x00000ef8:    1c6d        m.      ADDS     r5,r5,#1
        0x00000efa:    482f        /H      LDR      r0,[pc,#188] ; [0xfb8] = 0xfff
        0x00000efc:    b2ad        ..      UXTH     r5,r5
        0x00000efe:    4285        .B      CMP      r5,r0
        0x00000f00:    d201        ..      BCS      0xf06 ; PWM_ConfigOutputChannel + 98
        0x00000f02:    9800        ..      LDR      r0,[sp,#0]
        0x00000f04:    e7ef        ..      B        0xee6 ; PWM_ConfigOutputChannel + 66
        0x00000f06:    4629        )F      MOV      r1,r5
        0x00000f08:    4379        yC      MULS     r1,r7,r1
        0x00000f0a:    4630        0F      MOV      r0,r6
        0x00000f0c:    f7fff91e    ....    BL       __aeabi_uidiv ; 0x14c
        0x00000f10:    9001        ..      STR      r0,[sp,#4]
        0x00000f12:    9804        ..      LDR      r0,[sp,#0x10]
        0x00000f14:    1e6d        m.      SUBS     r5,r5,#1
        0x00000f16:    0842        B.      LSRS     r2,r0,#1
        0x00000f18:    0090        ..      LSLS     r0,r2,#2
        0x00000f1a:    b2a9        ..      UXTH     r1,r5
        0x00000f1c:    1903        ..      ADDS     r3,r0,r4
        0x00000f1e:    6159        Ya      STR      r1,[r3,#0x14]
        0x00000f20:    6861        ah      LDR      r1,[r4,#4]
        0x00000f22:    2303        .#      MOVS     r3,#3
        0x00000f24:    4083        .@      LSLS     r3,r3,r0
        0x00000f26:    4399        .C      BICS     r1,r1,r3
        0x00000f28:    2301        .#      MOVS     r3,#1
        0x00000f2a:    4083        .@      LSLS     r3,r3,r0
        0x00000f2c:    4319        .C      ORRS     r1,r1,r3
        0x00000f2e:    6061        a`      STR      r1,[r4,#4]
        0x00000f30:    1e7f        ..      SUBS     r7,r7,#1
        0x00000f32:    00d0        ..      LSLS     r0,r2,#3
        0x00000f34:    b2b9        ..      UXTH     r1,r7
        0x00000f36:    1900        ..      ADDS     r0,r0,r4
        0x00000f38:    6301        .c      STR      r1,[r0,#0x30]
        0x00000f3a:    9804        ..      LDR      r0,[sp,#0x10]
        0x00000f3c:    4d1f        .M      LDR      r5,[pc,#124] ; [0xfbc] = 0x30003
        0x00000f3e:    0080        ..      LSLS     r0,r0,#2
        0x00000f40:    1906        ..      ADDS     r6,r0,r4
        0x00000f42:    9804        ..      LDR      r0,[sp,#0x10]
        0x00000f44:    2702        .'      MOVS     r7,#2
        0x00000f46:    0040        @.      LSLS     r0,r0,#1
        0x00000f48:    4603        .F      MOV      r3,r0
        0x00000f4a:    3310        .3      ADDS     r3,r3,#0x10
        0x00000f4c:    409f        .@      LSLS     r7,r7,r3
        0x00000f4e:    9a06        ..      LDR      r2,[sp,#0x18]
        0x00000f50:    4085        .@      LSLS     r5,r5,r0
        0x00000f52:    3480        .4      ADDS     r4,r4,#0x80
        0x00000f54:    9300        ..      STR      r3,[sp,#0]
        0x00000f56:    2a00        .*      CMP      r2,#0
        0x00000f58:    d01c        ..      BEQ      0xf94 ; PWM_ConfigOutputChannel + 240
        0x00000f5a:    4610        .F      MOV      r0,r2
        0x00000f5c:    2a64        d*      CMP      r2,#0x64
        0x00000f5e:    d301        ..      BCC      0xf64 ; PWM_ConfigOutputChannel + 192
        0x00000f60:    6531        1e      STR      r1,[r6,#0x50]
        0x00000f62:    e005        ..      B        0xf70 ; PWM_ConfigOutputChannel + 204
        0x00000f64:    1c49        I.      ADDS     r1,r1,#1
        0x00000f66:    4348        HC      MULS     r0,r1,r0
        0x00000f68:    2164        d!      MOVS     r1,#0x64
        0x00000f6a:    f7fff8ef    ....    BL       __aeabi_uidiv ; 0x14c
        0x00000f6e:    6530        0e      STR      r0,[r6,#0x50]
        0x00000f70:    6b20         k      LDR      r0,[r4,#0x30]
        0x00000f72:    43a8        .C      BICS     r0,r0,r5
        0x00000f74:    6320         c      STR      r0,[r4,#0x30]
        0x00000f76:    6b21        !k      LDR      r1,[r4,#0x30]
        0x00000f78:    9a00        ..      LDR      r2,[sp,#0]
        0x00000f7a:    2001        .       MOVS     r0,#1
        0x00000f7c:    4090        .@      LSLS     r0,r0,r2
        0x00000f7e:    4301        .C      ORRS     r1,r1,r0
        0x00000f80:    6321        !c      STR      r1,[r4,#0x30]
        0x00000f82:    6b60        `k      LDR      r0,[r4,#0x34]
        0x00000f84:    43a8        .C      BICS     r0,r0,r5
        0x00000f86:    6360        `c      STR      r0,[r4,#0x34]
        0x00000f88:    6b60        `k      LDR      r0,[r4,#0x34]
        0x00000f8a:    4338        8C      ORRS     r0,r0,r7
        0x00000f8c:    6360        `c      STR      r0,[r4,#0x34]
        0x00000f8e:    9801        ..      LDR      r0,[sp,#4]
        0x00000f90:    b007        ..      ADD      sp,sp,#0x1c
        0x00000f92:    bdf0        ..      POP      {r4-r7,pc}
        0x00000f94:    2100        .!      MOVS     r1,#0
        0x00000f96:    6531        1e      STR      r1,[r6,#0x50]
        0x00000f98:    6b21        !k      LDR      r1,[r4,#0x30]
        0x00000f9a:    43a9        .C      BICS     r1,r1,r5
        0x00000f9c:    6321        !c      STR      r1,[r4,#0x30]
        0x00000f9e:    6b22        "k      LDR      r2,[r4,#0x30]
        0x00000fa0:    2101        .!      MOVS     r1,#1
        0x00000fa2:    4081        .@      LSLS     r1,r1,r0
        0x00000fa4:    430a        .C      ORRS     r2,r2,r1
        0x00000fa6:    6322        "c      STR      r2,[r4,#0x30]
        0x00000fa8:    e7eb        ..      B        0xf82 ; PWM_ConfigOutputChannel + 222
    $d
        0x00000faa:    0000        ..      DCW    0
        0x00000fac:    0000ffff    ....    DCD    65535
        0x00000fb0:    40058000    ...@    DCD    1074102272
        0x00000fb4:    40000200    ...@    DCD    1073742336
        0x00000fb8:    00000fff    ....    DCD    4095
        0x00000fbc:    00030003    ....    DCD    196611
    $t
    i.PWM_EnableOutput
    PWM_EnableOutput
        0x00000fc0:    3080        .0      ADDS     r0,r0,#0x80
        0x00000fc2:    6d82        .m      LDR      r2,[r0,#0x58]
        0x00000fc4:    430a        .C      ORRS     r2,r2,r1
        0x00000fc6:    6582        .e      STR      r2,[r0,#0x58]
        0x00000fc8:    4770        pG      BX       lr
    i.PWM_Start
    PWM_Start
        0x00000fca:    b570        p.      PUSH     {r4-r6,lr}
        0x00000fcc:    2200        ."      MOVS     r2,#0
        0x00000fce:    2501        .%      MOVS     r5,#1
        0x00000fd0:    462b        +F      MOV      r3,r5
        0x00000fd2:    4093        .@      LSLS     r3,r3,r2
        0x00000fd4:    420b        .B      TST      r3,r1
        0x00000fd6:    d006        ..      BEQ      0xfe6 ; PWM_Start + 28
        0x00000fd8:    6a04        .j      LDR      r4,[r0,#0x20]
        0x00000fda:    0856        V.      LSRS     r6,r2,#1
        0x00000fdc:    0076        v.      LSLS     r6,r6,#1
        0x00000fde:    462b        +F      MOV      r3,r5
        0x00000fe0:    40b3        .@      LSLS     r3,r3,r6
        0x00000fe2:    431c        .C      ORRS     r4,r4,r3
        0x00000fe4:    6204        .b      STR      r4,[r0,#0x20]
        0x00000fe6:    1c52        R.      ADDS     r2,r2,#1
        0x00000fe8:    2a06        .*      CMP      r2,#6
        0x00000fea:    d3f1        ..      BCC      0xfd0 ; PWM_Start + 6
        0x00000fec:    bd70        p.      POP      {r4-r6,pc}
        0x00000fee:    0000        ..      MOVS     r0,r0
    i.SYS_Init
    SYS_Init
        0x00000ff0:    b570        p.      PUSH     {r4-r6,lr}
        0x00000ff2:    2059        Y       MOVS     r0,#0x59
        0x00000ff4:    4c2e        .L      LDR      r4,[pc,#184] ; [0x10b0] = 0x40000100
        0x00000ff6:    2116        .!      MOVS     r1,#0x16
        0x00000ff8:    2288        ."      MOVS     r2,#0x88
        0x00000ffa:    6020         `      STR      r0,[r4,#0]
        0x00000ffc:    6021        !`      STR      r1,[r4,#0]
        0x00000ffe:    6022        "`      STR      r2,[r4,#0]
        0x00001000:    6823        #h      LDR      r3,[r4,#0]
        0x00001002:    2b00        .+      CMP      r3,#0
        0x00001004:    d0f9        ..      BEQ      0xffa ; SYS_Init + 10
        0x00001006:    2004        .       MOVS     r0,#4
        0x00001008:    f7fffb9c    ....    BL       CLK_EnableXtalRC ; 0x744
        0x0000100c:    2010        .       MOVS     r0,#0x10
        0x0000100e:    f7fffc97    ....    BL       CLK_WaitClockReady ; 0x940
        0x00001012:    2100        .!      MOVS     r1,#0
        0x00001014:    2007        .       MOVS     r0,#7
        0x00001016:    f7fffc33    ..3.    BL       CLK_SetHCLK ; 0x880
        0x0000101a:    4d26        &M      LDR      r5,[pc,#152] ; [0x10b4] = 0x5f803d10
        0x0000101c:    4628        (F      MOV      r0,r5
        0x0000101e:    f7fffb79    ..y.    BL       CLK_EnableModuleClock ; 0x714
        0x00001022:    2101        .!      MOVS     r1,#1
        0x00001024:    2200        ."      MOVS     r2,#0
        0x00001026:    0689        ..      LSLS     r1,r1,#26
        0x00001028:    4628        (F      MOV      r0,r5
        0x0000102a:    f7fffc51    ..Q.    BL       CLK_SetModuleClock ; 0x8d0
        0x0000102e:    2001        .       MOVS     r0,#1
        0x00001030:    f7fffb70    ..p.    BL       CLK_EnableModuleClock ; 0x714
        0x00001034:    4d20         M      LDR      r5,[pc,#128] ; [0x10b8] = 0x5ec00003
        0x00001036:    4628        (F      MOV      r0,r5
        0x00001038:    f7fffb6c    ..l.    BL       CLK_EnableModuleClock ; 0x714
        0x0000103c:    2101        .!      MOVS     r1,#1
        0x0000103e:    2200        ."      MOVS     r2,#0
        0x00001040:    0349        I.      LSLS     r1,r1,#13
        0x00001042:    4628        (F      MOV      r0,r5
        0x00001044:    f7fffc44    ..D.    BL       CLK_SetModuleClock ; 0x8d0
        0x00001048:    4d1c        .M      LDR      r5,[pc,#112] ; [0x10bc] = 0x5f400005
        0x0000104a:    4628        (F      MOV      r0,r5
        0x0000104c:    f7fffb62    ..b.    BL       CLK_EnableModuleClock ; 0x714
        0x00001050:    2101        .!      MOVS     r1,#1
        0x00001052:    2200        ."      MOVS     r2,#0
        0x00001054:    0549        I.      LSLS     r1,r1,#21
        0x00001056:    4628        (F      MOV      r0,r5
        0x00001058:    f7fffc3a    ..:.    BL       CLK_SetModuleClock ; 0x8d0
        0x0000105c:    4d18        .M      LDR      r5,[pc,#96] ; [0x10c0] = 0xa2000010
        0x0000105e:    4628        (F      MOV      r0,r5
        0x00001060:    f7fffb58    ..X.    BL       CLK_EnableModuleClock ; 0x714
        0x00001064:    2200        ."      MOVS     r2,#0
        0x00001066:    2101        .!      MOVS     r1,#1
        0x00001068:    4628        (F      MOV      r0,r5
        0x0000106a:    f7fffc31    ..1.    BL       CLK_SetModuleClock ; 0x8d0
        0x0000106e:    4815        .H      LDR      r0,[pc,#84] ; [0x10c4] = 0x8000010
        0x00001070:    f000f82a    ..*.    BL       SYS_ResetModule ; 0x10c8
        0x00001074:    f000f846    ..F.    BL       SystemCoreClockUpdate ; 0x1104
        0x00001078:    06a8        ..      LSLS     r0,r5,#26
        0x0000107a:    6bc1        .k      LDR      r1,[r0,#0x3c]
        0x0000107c:    22ff        ."      MOVS     r2,#0xff
        0x0000107e:    0412        ..      LSLS     r2,r2,#16
        0x00001080:    4391        .C      BICS     r1,r1,r2
        0x00001082:    2233        3"      MOVS     r2,#0x33
        0x00001084:    0452        R.      LSLS     r2,r2,#17
        0x00001086:    1889        ..      ADDS     r1,r1,r2
        0x00001088:    63c1        .c      STR      r1,[r0,#0x3c]
        0x0000108a:    6b81        .k      LDR      r1,[r0,#0x38]
        0x0000108c:    220f        ."      MOVS     r2,#0xf
        0x0000108e:    0512        ..      LSLS     r2,r2,#20
        0x00001090:    4391        .C      BICS     r1,r1,r2
        0x00001092:    220b        ."      MOVS     r2,#0xb
        0x00001094:    0512        ..      LSLS     r2,r2,#20
        0x00001096:    1889        ..      ADDS     r1,r1,r2
        0x00001098:    6381        .c      STR      r1,[r0,#0x38]
        0x0000109a:    6b41        Ak      LDR      r1,[r0,#0x34]
        0x0000109c:    220f        ."      MOVS     r2,#0xf
        0x0000109e:    0212        ..      LSLS     r2,r2,#8
        0x000010a0:    4391        .C      BICS     r1,r1,r2
        0x000010a2:    220d        ."      MOVS     r2,#0xd
        0x000010a4:    0212        ..      LSLS     r2,r2,#8
        0x000010a6:    1889        ..      ADDS     r1,r1,r2
        0x000010a8:    6341        Ac      STR      r1,[r0,#0x34]
        0x000010aa:    2000        .       MOVS     r0,#0
        0x000010ac:    6020         `      STR      r0,[r4,#0]
        0x000010ae:    bd70        p.      POP      {r4-r6,pc}
    $d
        0x000010b0:    40000100    ...@    DCD    1073742080
        0x000010b4:    5f803d10    .=._    DCD    1602239760
        0x000010b8:    5ec00003    ...^    DCD    1589641219
        0x000010bc:    5f400005    ..@_    DCD    1598029829
        0x000010c0:    a2000010    ....    DCD    2717909008
        0x000010c4:    08000010    ....    DCD    134217744
    $t
    i.SYS_ResetModule
    SYS_ResetModule
        0x000010c8:    2101        .!      MOVS     r1,#1
        0x000010ca:    0e02        ..      LSRS     r2,r0,#24
        0x000010cc:    0789        ..      LSLS     r1,r1,#30
        0x000010ce:    1851        Q.      ADDS     r1,r2,r1
        0x000010d0:    688b        .h      LDR      r3,[r1,#8]
        0x000010d2:    2201        ."      MOVS     r2,#1
        0x000010d4:    4082        .@      LSLS     r2,r2,r0
        0x000010d6:    4313        .C      ORRS     r3,r3,r2
        0x000010d8:    608b        .`      STR      r3,[r1,#8]
        0x000010da:    6888        .h      LDR      r0,[r1,#8]
        0x000010dc:    4390        .C      BICS     r0,r0,r2
        0x000010de:    6088        .`      STR      r0,[r1,#8]
        0x000010e0:    4770        pG      BX       lr
        0x000010e2:    0000        ..      MOVS     r0,r0
    i.SendChar
    SendChar
        0x000010e4:    4906        .I      LDR      r1,[pc,#24] ; [0x1100] = 0x40070000
        0x000010e6:    698a        .i      LDR      r2,[r1,#0x18]
        0x000010e8:    0212        ..      LSLS     r2,r2,#8
        0x000010ea:    d4fc        ..      BMI      0x10e6 ; SendChar + 2
        0x000010ec:    6008        .`      STR      r0,[r1,#0]
        0x000010ee:    280a        .(      CMP      r0,#0xa
        0x000010f0:    d104        ..      BNE      0x10fc ; SendChar + 24
        0x000010f2:    6988        .i      LDR      r0,[r1,#0x18]
        0x000010f4:    0200        ..      LSLS     r0,r0,#8
        0x000010f6:    d4fc        ..      BMI      0x10f2 ; SendChar + 14
        0x000010f8:    200d        .       MOVS     r0,#0xd
        0x000010fa:    6008        .`      STR      r0,[r1,#0]
        0x000010fc:    4770        pG      BX       lr
    $d
        0x000010fe:    0000        ..      DCW    0
        0x00001100:    40070000    ...@    DCD    1074200576
    $t
    i.SystemCoreClockUpdate
    SystemCoreClockUpdate
        0x00001104:    b5f8        ..      PUSH     {r3-r7,lr}
        0x00001106:    4d1d        .M      LDR      r5,[pc,#116] ; [0x117c] = 0x40000200
        0x00001108:    6928        (i      LDR      r0,[r5,#0x10]
        0x0000110a:    491c        .I      LDR      r1,[pc,#112] ; [0x117c] = 0x40000200
        0x0000110c:    0744        D.      LSLS     r4,r0,#29
        0x0000110e:    a01c        ..      ADR      r0,{pc}+0x72 ; 0x1180
        0x00001110:    6800        .h      LDR      r0,[r0,#0]
        0x00001112:    9000        ..      STR      r0,[sp,#0]
        0x00001114:    0f64        d.      LSRS     r4,r4,#29
        0x00001116:    2000        .       MOVS     r0,#0
        0x00001118:    3140        @1      ADDS     r1,r1,#0x40
        0x0000111a:    6809        .h      LDR      r1,[r1,#0]
        0x0000111c:    2205        ."      MOVS     r2,#5
        0x0000111e:    0412        ..      LSLS     r2,r2,#16
        0x00001120:    4211        .B      TST      r1,r2
        0x00001122:    d116        ..      BNE      0x1152 ; SystemCoreClockUpdate + 78
        0x00001124:    0308        ..      LSLS     r0,r1,#12
        0x00001126:    d501        ..      BPL      0x112c ; SystemCoreClockUpdate + 40
        0x00001128:    4816        .H      LDR      r0,[pc,#88] ; [0x1184] = 0xb71b00
        0x0000112a:    e000        ..      B        0x112e ; SystemCoreClockUpdate + 42
        0x0000112c:    4816        .H      LDR      r0,[pc,#88] ; [0x1188] = 0x1e84800
        0x0000112e:    038a        ..      LSLS     r2,r1,#14
        0x00001130:    d40f        ..      BMI      0x1152 ; SystemCoreClockUpdate + 78
        0x00001132:    040a        ..      LSLS     r2,r1,#16
        0x00001134:    0f92        ..      LSRS     r2,r2,#30
        0x00001136:    466b        kF      MOV      r3,sp
        0x00001138:    5c9b        .\      LDRB     r3,[r3,r2]
        0x0000113a:    05ca        ..      LSLS     r2,r1,#23
        0x0000113c:    0489        ..      LSLS     r1,r1,#18
        0x0000113e:    0dd2        ..      LSRS     r2,r2,#23
        0x00001140:    0ec9        ..      LSRS     r1,r1,#27
        0x00001142:    1c89        ..      ADDS     r1,r1,#2
        0x00001144:    0880        ..      LSRS     r0,r0,#2
        0x00001146:    1c92        ..      ADDS     r2,r2,#2
        0x00001148:    4359        YC      MULS     r1,r3,r1
        0x0000114a:    4350        PC      MULS     r0,r2,r0
        0x0000114c:    f7fefffe    ....    BL       __aeabi_uidiv ; 0x14c
        0x00001150:    0080        ..      LSLS     r0,r0,#2
        0x00001152:    4e0e        .N      LDR      r6,[pc,#56] ; [0x118c] = 0x20000000
        0x00001154:    2c02        .,      CMP      r4,#2
        0x00001156:    60b0        .`      STR      r0,[r6,#8]
        0x00001158:    d002        ..      BEQ      0x1160 ; SystemCoreClockUpdate + 92
        0x0000115a:    490d        .I      LDR      r1,[pc,#52] ; [0x1190] = 0x20c8
        0x0000115c:    00a0        ..      LSLS     r0,r4,#2
        0x0000115e:    5808        .X      LDR      r0,[r1,r0]
        0x00001160:    6a29        )j      LDR      r1,[r5,#0x20]
        0x00001162:    0709        ..      LSLS     r1,r1,#28
        0x00001164:    0f09        ..      LSRS     r1,r1,#28
        0x00001166:    1c49        I.      ADDS     r1,r1,#1
        0x00001168:    f7fefff0    ....    BL       __aeabi_uidiv ; 0x14c
        0x0000116c:    4909        .I      LDR      r1,[pc,#36] ; [0x1194] = 0xf4240
        0x0000116e:    6030        0`      STR      r0,[r6,#0]
        0x00001170:    104a        J.      ASRS     r2,r1,#1
        0x00001172:    1880        ..      ADDS     r0,r0,r2
        0x00001174:    f7feffea    ....    BL       __aeabi_uidiv ; 0x14c
        0x00001178:    6070        p`      STR      r0,[r6,#4]
        0x0000117a:    bdf8        ..      POP      {r3-r7,pc}
    $d
        0x0000117c:    40000200    ...@    DCD    1073742336
        0x00001180:    04020201    ....    DCD    67240449
        0x00001184:    00b71b00    ....    DCD    12000000
        0x00001188:    01e84800    .H..    DCD    32000000
        0x0000118c:    20000000    ...     DCD    536870912
        0x00001190:    000020c8    . ..    DCD    8392
        0x00001194:    000f4240    @B..    DCD    1000000
    $t
    i.SystemInit
    SystemInit
        0x00001198:    b510        ..      PUSH     {r4,lr}
        0x0000119a:    2159        Y!      MOVS     r1,#0x59
        0x0000119c:    480a        .H      LDR      r0,[pc,#40] ; [0x11c8] = 0x40000100
        0x0000119e:    2316        .#      MOVS     r3,#0x16
        0x000011a0:    2288        ."      MOVS     r2,#0x88
        0x000011a2:    6001        .`      STR      r1,[r0,#0]
        0x000011a4:    6003        .`      STR      r3,[r0,#0]
        0x000011a6:    6002        .`      STR      r2,[r0,#0]
        0x000011a8:    6804        .h      LDR      r4,[r0,#0]
        0x000011aa:    2c00        .,      CMP      r4,#0
        0x000011ac:    d0f9        ..      BEQ      0x11a2 ; SystemInit + 10
        0x000011ae:    4907        .I      LDR      r1,[pc,#28] ; [0x11cc] = 0x40000200
        0x000011b0:    680b        .h      LDR      r3,[r1,#0]
        0x000011b2:    2207        ."      MOVS     r2,#7
        0x000011b4:    0512        ..      LSLS     r2,r2,#20
        0x000011b6:    4393        .C      BICS     r3,r3,r2
        0x000011b8:    600b        .`      STR      r3,[r1,#0]
        0x000011ba:    680b        .h      LDR      r3,[r1,#0]
        0x000011bc:    4313        .C      ORRS     r3,r3,r2
        0x000011be:    600b        .`      STR      r3,[r1,#0]
        0x000011c0:    2100        .!      MOVS     r1,#0
        0x000011c2:    6001        .`      STR      r1,[r0,#0]
        0x000011c4:    bd10        ..      POP      {r4,pc}
    $d
        0x000011c6:    0000        ..      DCW    0
        0x000011c8:    40000100    ...@    DCD    1073742080
        0x000011cc:    40000200    ...@    DCD    1073742336
    $t
    i.TIMER3_Init
    TIMER3_Init
        0x000011d0:    b510        ..      PUSH     {r4,lr}
        0x000011d2:    4c0a        .L      LDR      r4,[pc,#40] ; [0x11fc] = 0x40051020
        0x000011d4:    227d        }"      MOVS     r2,#0x7d
        0x000011d6:    2101        .!      MOVS     r1,#1
        0x000011d8:    00d2        ..      LSLS     r2,r2,#3
        0x000011da:    06c9        ..      LSLS     r1,r1,#27
        0x000011dc:    4620         F      MOV      r0,r4
        0x000011de:    f000f853    ..S.    BL       TIMER_Open ; 0x1288
        0x000011e2:    6820         h      LDR      r0,[r4,#0]
        0x000011e4:    0621        !.      LSLS     r1,r4,#24
        0x000011e6:    4308        .C      ORRS     r0,r0,r1
        0x000011e8:    6020         `      STR      r0,[r4,#0]
        0x000011ea:    1488        ..      ASRS     r0,r1,#18
        0x000011ec:    4904        .I      LDR      r1,[pc,#16] ; [0x1200] = 0xe000e100
        0x000011ee:    6008        .`      STR      r0,[r1,#0]
        0x000011f0:    6820         h      LDR      r0,[r4,#0]
        0x000011f2:    0589        ..      LSLS     r1,r1,#22
        0x000011f4:    4308        .C      ORRS     r0,r0,r1
        0x000011f6:    6020         `      STR      r0,[r4,#0]
        0x000011f8:    bd10        ..      POP      {r4,pc}
    $d
        0x000011fa:    0000        ..      DCW    0
        0x000011fc:    40051020     ..@    DCD    1074073632
        0x00001200:    e000e100    ....    DCD    3758153984
    $t
    i.TIMER_EnableCapture
    TIMER_EnableCapture
        0x00001204:    b510        ..      PUSH     {r4,lr}
        0x00001206:    6943        Ci      LDR      r3,[r0,#0x14]
        0x00001208:    2416        .$      MOVS     r4,#0x16
        0x0000120a:    43a3        .C      BICS     r3,r3,r4
        0x0000120c:    430b        .C      ORRS     r3,r3,r1
        0x0000120e:    4313        .C      ORRS     r3,r3,r2
        0x00001210:    2108        .!      MOVS     r1,#8
        0x00001212:    430b        .C      ORRS     r3,r3,r1
        0x00001214:    6143        Ca      STR      r3,[r0,#0x14]
        0x00001216:    bd10        ..      POP      {r4,pc}
    i.TIMER_GetModuleClock
    TIMER_GetModuleClock
        0x00001218:    b510        ..      PUSH     {r4,lr}
        0x0000121a:    b088        ..      SUB      sp,sp,#0x20
        0x0000121c:    4604        .F      MOV      r4,r0
        0x0000121e:    2220         "      MOVS     r2,#0x20
        0x00001220:    4915        .I      LDR      r1,[pc,#84] ; [0x1278] = 0x2168
        0x00001222:    4668        hF      MOV      r0,sp
        0x00001224:    f7feffa8    ....    BL       __aeabi_memcpy ; 0x178
        0x00001228:    4b14        .K      LDR      r3,[pc,#80] ; [0x127c] = 0x40050000
        0x0000122a:    4a14        .J      LDR      r2,[pc,#80] ; [0x127c] = 0x40050000
        0x0000122c:    4814        .H      LDR      r0,[pc,#80] ; [0x1280] = 0x40000200
        0x0000122e:    3320         3      ADDS     r3,r3,#0x20
        0x00001230:    4294        .B      CMP      r4,r2
        0x00001232:    d102        ..      BNE      0x123a ; TIMER_GetModuleClock + 34
        0x00001234:    6940        @i      LDR      r0,[r0,#0x14]
        0x00001236:    0a00        ..      LSRS     r0,r0,#8
        0x00001238:    e00b        ..      B        0x1252 ; TIMER_GetModuleClock + 58
        0x0000123a:    429c        .B      CMP      r4,r3
        0x0000123c:    d102        ..      BNE      0x1244 ; TIMER_GetModuleClock + 44
        0x0000123e:    6940        @i      LDR      r0,[r0,#0x14]
        0x00001240:    0b00        ..      LSRS     r0,r0,#12
        0x00001242:    e006        ..      B        0x1252 ; TIMER_GetModuleClock + 58
        0x00001244:    490f        .I      LDR      r1,[pc,#60] ; [0x1284] = 0x40051000
        0x00001246:    6940        @i      LDR      r0,[r0,#0x14]
        0x00001248:    428c        .B      CMP      r4,r1
        0x0000124a:    d101        ..      BNE      0x1250 ; TIMER_GetModuleClock + 56
        0x0000124c:    0c00        ..      LSRS     r0,r0,#16
        0x0000124e:    e000        ..      B        0x1252 ; TIMER_GetModuleClock + 58
        0x00001250:    0d00        ..      LSRS     r0,r0,#20
        0x00001252:    0741        A.      LSLS     r1,r0,#29
        0x00001254:    0f49        I.      LSRS     r1,r1,#29
        0x00001256:    2902        .)      CMP      r1,#2
        0x00001258:    d004        ..      BEQ      0x1264 ; TIMER_GetModuleClock + 76
        0x0000125a:    0088        ..      LSLS     r0,r1,#2
        0x0000125c:    4669        iF      MOV      r1,sp
        0x0000125e:    5808        .X      LDR      r0,[r1,r0]
        0x00001260:    b008        ..      ADD      sp,sp,#0x20
        0x00001262:    bd10        ..      POP      {r4,pc}
        0x00001264:    4294        .B      CMP      r4,r2
        0x00001266:    d001        ..      BEQ      0x126c ; TIMER_GetModuleClock + 84
        0x00001268:    429c        .B      CMP      r4,r3
        0x0000126a:    d102        ..      BNE      0x1272 ; TIMER_GetModuleClock + 90
        0x0000126c:    f7fffa90    ....    BL       CLK_GetPCLK0Freq ; 0x790
        0x00001270:    e7f6        ..      B        0x1260 ; TIMER_GetModuleClock + 72
        0x00001272:    f7fffa9d    ....    BL       CLK_GetPCLK1Freq ; 0x7b0
        0x00001276:    e7f3        ..      B        0x1260 ; TIMER_GetModuleClock + 72
    $d
        0x00001278:    00002168    h!..    DCD    8552
        0x0000127c:    40050000    ...@    DCD    1074069504
        0x00001280:    40000200    ...@    DCD    1073742336
        0x00001284:    40051000    ...@    DCD    1074073600
    $t
    i.TIMER_Open
    TIMER_Open
        0x00001288:    b5f7        ..      PUSH     {r0-r2,r4-r7,lr}
        0x0000128a:    4617        .F      MOV      r7,r2
        0x0000128c:    4606        .F      MOV      r6,r0
        0x0000128e:    f7ffffc3    ....    BL       TIMER_GetModuleClock ; 0x1218
        0x00001292:    4605        .F      MOV      r5,r0
        0x00001294:    2400        .$      MOVS     r4,#0
        0x00001296:    0840        @.      LSRS     r0,r0,#1
        0x00001298:    42b8        .B      CMP      r0,r7
        0x0000129a:    d801        ..      BHI      0x12a0 ; TIMER_Open + 24
        0x0000129c:    2002        .       MOVS     r0,#2
        0x0000129e:    e008        ..      B        0x12b2 ; TIMER_Open + 42
        0x000012a0:    4639        9F      MOV      r1,r7
        0x000012a2:    4628        (F      MOV      r0,r5
        0x000012a4:    f7feff52    ..R.    BL       __aeabi_uidiv ; 0x14c
        0x000012a8:    0e04        ..      LSRS     r4,r0,#24
        0x000012aa:    d002        ..      BEQ      0x12b2 ; TIMER_Open + 42
        0x000012ac:    1c61        a.      ADDS     r1,r4,#1
        0x000012ae:    f7feff4d    ..M.    BL       __aeabi_uidiv ; 0x14c
        0x000012b2:    9901        ..      LDR      r1,[sp,#4]
        0x000012b4:    4321        !C      ORRS     r1,r1,r4
        0x000012b6:    6031        1`      STR      r1,[r6,#0]
        0x000012b8:    6070        p`      STR      r0,[r6,#4]
        0x000012ba:    1c64        d.      ADDS     r4,r4,#1
        0x000012bc:    4360        `C      MULS     r0,r4,r0
        0x000012be:    4601        .F      MOV      r1,r0
        0x000012c0:    4628        (F      MOV      r0,r5
        0x000012c2:    f7feff43    ..C.    BL       __aeabi_uidiv ; 0x14c
        0x000012c6:    bdfe        ..      POP      {r1-r7,pc}
    i.TIMER_SetTriggerSource
    TIMER_SetTriggerSource
        0x000012c8:    6802        .h      LDR      r2,[r0,#0]
        0x000012ca:    2301        .#      MOVS     r3,#1
        0x000012cc:    049b        ..      LSLS     r3,r3,#18
        0x000012ce:    439a        .C      BICS     r2,r2,r3
        0x000012d0:    430a        .C      ORRS     r2,r2,r1
        0x000012d2:    6002        .`      STR      r2,[r0,#0]
        0x000012d4:    4770        pG      BX       lr
        0x000012d6:    0000        ..      MOVS     r0,r0
    i.TIMER_SetTriggerTarget
    TIMER_SetTriggerTarget
        0x000012d8:    6802        .h      LDR      r2,[r0,#0]
        0x000012da:    4b02        .K      LDR      r3,[pc,#8] ; [0x12e4] = 0xffd7feff
        0x000012dc:    401a        .@      ANDS     r2,r2,r3
        0x000012de:    430a        .C      ORRS     r2,r2,r1
        0x000012e0:    6002        .`      STR      r2,[r0,#0]
        0x000012e2:    4770        pG      BX       lr
    $d
        0x000012e4:    ffd7feff    ....    DCD    4292345599
    $t
    i.TMR1_IRQHandler
    TMR1_IRQHandler
        0x000012e8:    4802        .H      LDR      r0,[pc,#8] ; [0x12f4] = 0x40050020
        0x000012ea:    6981        .i      LDR      r1,[r0,#0x18]
        0x000012ec:    2901        .)      CMP      r1,#1
        0x000012ee:    d100        ..      BNE      0x12f2 ; TMR1_IRQHandler + 10
        0x000012f0:    6181        .a      STR      r1,[r0,#0x18]
        0x000012f2:    4770        pG      BX       lr
    $d
        0x000012f4:    40050020     ..@    DCD    1074069536
    $t
    i.TMR3_IRQHandler
    TMR3_IRQHandler
        0x000012f8:    4812        .H      LDR      r0,[pc,#72] ; [0x1344] = 0x40051020
        0x000012fa:    6881        .h      LDR      r1,[r0,#8]
        0x000012fc:    07c9        ..      LSLS     r1,r1,#31
        0x000012fe:    0fc9        ..      LSRS     r1,r1,#31
        0x00001300:    d01e        ..      BEQ      0x1340 ; TMR3_IRQHandler + 72
        0x00001302:    2101        .!      MOVS     r1,#1
        0x00001304:    6081        .`      STR      r1,[r0,#8]
        0x00001306:    4910        .I      LDR      r1,[pc,#64] ; [0x1348] = 0x20000010
        0x00001308:    6888        .h      LDR      r0,[r1,#8]
        0x0000130a:    0780        ..      LSLS     r0,r0,#30
        0x0000130c:    d501        ..      BPL      0x1312 ; TMR3_IRQHandler + 26
        0x0000130e:    480f        .H      LDR      r0,[pc,#60] ; [0x134c] = 0x10ce
        0x00001310:    e009        ..      B        0x1326 ; TMR3_IRQHandler + 46
        0x00001312:    6888        .h      LDR      r0,[r1,#8]
        0x00001314:    0740        @.      LSLS     r0,r0,#29
        0x00001316:    d502        ..      BPL      0x131e ; TMR3_IRQHandler + 38
        0x00001318:    207d        }       MOVS     r0,#0x7d
        0x0000131a:    00c0        ..      LSLS     r0,r0,#3
        0x0000131c:    e003        ..      B        0x1326 ; TMR3_IRQHandler + 46
        0x0000131e:    6888        .h      LDR      r0,[r1,#8]
        0x00001320:    0700        ..      LSLS     r0,r0,#28
        0x00001322:    d501        ..      BPL      0x1328 ; TMR3_IRQHandler + 48
        0x00001324:    2006        .       MOVS     r0,#6
        0x00001326:    8008        ..      STRH     r0,[r1,#0]
        0x00001328:    8848        H.      LDRH     r0,[r1,#2]
        0x0000132a:    1c42        B.      ADDS     r2,r0,#1
        0x0000132c:    804a        J.      STRH     r2,[r1,#2]
        0x0000132e:    880a        ..      LDRH     r2,[r1,#0]
        0x00001330:    4290        .B      CMP      r0,r2
        0x00001332:    d305        ..      BCC      0x1340 ; TMR3_IRQHandler + 72
        0x00001334:    2000        .       MOVS     r0,#0
        0x00001336:    8048        H.      STRH     r0,[r1,#2]
        0x00001338:    4805        .H      LDR      r0,[pc,#20] ; [0x1350] = 0x40004840
        0x0000133a:    6b81        .k      LDR      r1,[r0,#0x38]
        0x0000133c:    43c9        .C      MVNS     r1,r1
        0x0000133e:    6381        .c      STR      r1,[r0,#0x38]
        0x00001340:    4770        pG      BX       lr
    $d
        0x00001342:    0000        ..      DCW    0
        0x00001344:    40051020     ..@    DCD    1074073632
        0x00001348:    20000010    ...     DCD    536870928
        0x0000134c:    000010ce    ....    DCD    4302
        0x00001350:    40004840    @H.@    DCD    1073760320
    $t
    i.UART02_IRQHandler
    UART02_IRQHandler
        0x00001354:    b5f8        ..      PUSH     {r3-r7,lr}
        0x00001356:    4d21        !M      LDR      r5,[pc,#132] ; [0x13dc] = 0x40070000
        0x00001358:    69e8        .i      LDR      r0,[r5,#0x1c]
        0x0000135a:    4c21        !L      LDR      r4,[pc,#132] ; [0x13e0] = 0x20000032
        0x0000135c:    05c0        ..      LSLS     r0,r0,#23
        0x0000135e:    1de7        ..      ADDS     r7,r4,#7
        0x00001360:    2600        .&      MOVS     r6,#0
        0x00001362:    4b20         K      LDR      r3,[pc,#128] ; [0x13e4] = 0x20000010
        0x00001364:    37f9        .7      ADDS     r7,r7,#0xf9
        0x00001366:    2800        .(      CMP      r0,#0
        0x00001368:    da11        ..      BGE      0x138e ; UART02_IRQHandler + 58
        0x0000136a:    78b8        .x      LDRB     r0,[r7,#2]
        0x0000136c:    1c40        @.      ADDS     r0,r0,#1
        0x0000136e:    70b8        .p      STRB     r0,[r7,#2]
        0x00001370:    2100        .!      MOVS     r1,#0
        0x00001372:    6828        (h      LDR      r0,[r5,#0]
        0x00001374:    889a        ..      LDRH     r2,[r3,#4]
        0x00001376:    54a0        .T      STRB     r0,[r4,r2]
        0x00001378:    1c52        R.      ADDS     r2,r2,#1
        0x0000137a:    b290        ..      UXTH     r0,r2
        0x0000137c:    8098        ..      STRH     r0,[r3,#4]
        0x0000137e:    28ff        .(      CMP      r0,#0xff
        0x00001380:    d900        ..      BLS      0x1384 ; UART02_IRQHandler + 48
        0x00001382:    809e        ..      STRH     r6,[r3,#4]
        0x00001384:    1c49        I.      ADDS     r1,r1,#1
        0x00001386:    b2c9        ..      UXTB     r1,r1
        0x00001388:    2903        .)      CMP      r1,#3
        0x0000138a:    d3f2        ..      BCC      0x1372 ; UART02_IRQHandler + 30
        0x0000138c:    bdf8        ..      POP      {r3-r7,pc}
        0x0000138e:    69e8        .i      LDR      r0,[r5,#0x1c]
        0x00001390:    04c0        ..      LSLS     r0,r0,#19
        0x00001392:    d5fb        ..      BPL      0x138c ; UART02_IRQHandler + 56
        0x00001394:    78f8        .x      LDRB     r0,[r7,#3]
        0x00001396:    1c40        @.      ADDS     r0,r0,#1
        0x00001398:    70f8        .p      STRB     r0,[r7,#3]
        0x0000139a:    e004        ..      B        0x13a6 ; UART02_IRQHandler + 82
        0x0000139c:    6829        )h      LDR      r1,[r5,#0]
        0x0000139e:    8898        ..      LDRH     r0,[r3,#4]
        0x000013a0:    5421        !T      STRB     r1,[r4,r0]
        0x000013a2:    1c40        @.      ADDS     r0,r0,#1
        0x000013a4:    8098        ..      STRH     r0,[r3,#4]
        0x000013a6:    69a8        .i      LDR      r0,[r5,#0x18]
        0x000013a8:    0440        @.      LSLS     r0,r0,#17
        0x000013aa:    d5f7        ..      BPL      0x139c ; UART02_IRQHandler + 72
        0x000013ac:    6868        hh      LDR      r0,[r5,#4]
        0x000013ae:    2111        .!      MOVS     r1,#0x11
        0x000013b0:    4388        .C      BICS     r0,r0,r1
        0x000013b2:    6068        h`      STR      r0,[r5,#4]
        0x000013b4:    8898        ..      LDRH     r0,[r3,#4]
        0x000013b6:    8038        8.      STRH     r0,[r7,#0]
        0x000013b8:    809e        ..      STRH     r6,[r3,#4]
        0x000013ba:    7821        !x      LDRB     r1,[r4,#0]
        0x000013bc:    a00a        ..      ADR      r0,{pc}+0x2c ; 0x13e8
        0x000013be:    f000f981    ....    BL       __0printf ; 0x16c4
        0x000013c2:    7820         x      LDRB     r0,[r4,#0]
        0x000013c4:    f000f8a6    ....    BL       UART0_Process ; 0x1514
        0x000013c8:    2111        .!      MOVS     r1,#0x11
        0x000013ca:    4628        (F      MOV      r0,r5
        0x000013cc:    f000f8f8    ....    BL       UART_EnableInt ; 0x15c0
        0x000013d0:    21ff        .!      MOVS     r1,#0xff
        0x000013d2:    3105        .1      ADDS     r1,#5
        0x000013d4:    4802        .H      LDR      r0,[pc,#8] ; [0x13e0] = 0x20000032
        0x000013d6:    f7fefee8    ....    BL       __aeabi_memclr ; 0x1aa
        0x000013da:    bdf8        ..      POP      {r3-r7,pc}
    $d
        0x000013dc:    40070000    ...@    DCD    1074200576
        0x000013e0:    20000032    2..     DCD    536870962
        0x000013e4:    20000010    ...     DCD    536870928
        0x000013e8:    54524155    UART    DCD    1414676821
        0x000013ec:    20585220     RX     DCD    542659104
        0x000013f0:    7830203a    : 0x    DCD    2016419898
        0x000013f4:    20583225    %2X     DCD    542650917
        0x000013f8:    00000a0d    ....    DCD    2573
    $t
    i.UART0_Init
    UART0_Init
        0x000013fc:    b510        ..      PUSH     {r4,lr}
        0x000013fe:    4820         H      LDR      r0,[pc,#128] ; [0x1480] = 0x4000010
        0x00001400:    f7fffe62    ..b.    BL       SYS_ResetModule ; 0x10c8
        0x00001404:    4c1f        .L      LDR      r4,[pc,#124] ; [0x1484] = 0x40070000
        0x00001406:    21e1        .!      MOVS     r1,#0xe1
        0x00001408:    0249        I.      LSLS     r1,r1,#9
        0x0000140a:    4620         F      MOV      r0,r4
        0x0000140c:    f000f8dc    ....    BL       UART_Open ; 0x15c8
        0x00001410:    2114        .!      MOVS     r1,#0x14
        0x00001412:    4620         F      MOV      r0,r4
        0x00001414:    f000f94a    ..J.    BL       UART_SetTimeoutCnt ; 0x16ac
        0x00001418:    68a0        .h      LDR      r0,[r4,#8]
        0x0000141a:    21f0        .!      MOVS     r1,#0xf0
        0x0000141c:    4388        .C      BICS     r0,r0,r1
        0x0000141e:    3010        .0      ADDS     r0,r0,#0x10
        0x00001420:    60a0        .`      STR      r0,[r4,#8]
        0x00001422:    6860        `h      LDR      r0,[r4,#4]
        0x00001424:    2111        .!      MOVS     r1,#0x11
        0x00001426:    4308        .C      ORRS     r0,r0,r1
        0x00001428:    6060        ``      STR      r0,[r4,#4]
        0x0000142a:    2001        .       MOVS     r0,#1
        0x0000142c:    4916        .I      LDR      r1,[pc,#88] ; [0x1488] = 0xe000e100
        0x0000142e:    0300        ..      LSLS     r0,r0,#12
        0x00001430:    6008        .`      STR      r0,[r1,#0]
        0x00001432:    f7fff98f    ....    BL       CLK_GetCPUFreq ; 0x754
        0x00001436:    4601        .F      MOV      r1,r0
        0x00001438:    a014        ..      ADR      r0,{pc}+0x54 ; 0x148c
        0x0000143a:    f000f943    ..C.    BL       __0printf ; 0x16c4
        0x0000143e:    f7fff991    ....    BL       CLK_GetHXTFreq ; 0x764
        0x00001442:    4601        .F      MOV      r1,r0
        0x00001444:    a018        ..      ADR      r0,{pc}+0x64 ; 0x14a8
        0x00001446:    f000f93d    ..=.    BL       __0printf ; 0x16c4
        0x0000144a:    f7fff995    ....    BL       CLK_GetLXTFreq ; 0x778
        0x0000144e:    4601        .F      MOV      r1,r0
        0x00001450:    a01b        ..      ADR      r0,{pc}+0x70 ; 0x14c0
        0x00001452:    f000f937    ..7.    BL       __0printf ; 0x16c4
        0x00001456:    f7fff99b    ....    BL       CLK_GetPCLK0Freq ; 0x790
        0x0000145a:    4601        .F      MOV      r1,r0
        0x0000145c:    a01e        ..      ADR      r0,{pc}+0x7c ; 0x14d8
        0x0000145e:    f000f931    ..1.    BL       __0printf ; 0x16c4
        0x00001462:    f7fff9a5    ....    BL       CLK_GetPCLK1Freq ; 0x7b0
        0x00001466:    4601        .F      MOV      r1,r0
        0x00001468:    a022        ".      ADR      r0,{pc}+0x8c ; 0x14f4
        0x0000146a:    f000f92b    ..+.    BL       __0printf ; 0x16c4
        0x0000146e:    69a0        .i      LDR      r0,[r4,#0x18]
        0x00001470:    00c0        ..      LSLS     r0,r0,#3
        0x00001472:    d5fc        ..      BPL      0x146e ; UART0_Init + 114
        0x00001474:    21ff        .!      MOVS     r1,#0xff
        0x00001476:    3105        .1      ADDS     r1,#5
        0x00001478:    4825        %H      LDR      r0,[pc,#148] ; [0x1510] = 0x20000032
        0x0000147a:    f7fefe96    ....    BL       __aeabi_memclr ; 0x1aa
        0x0000147e:    bd10        ..      POP      {r4,pc}
    $d
        0x00001480:    04000010    ....    DCD    67108880
        0x00001484:    40070000    ...@    DCD    1074200576
        0x00001488:    e000e100    ....    DCD    3758153984
        0x0000148c:    4c430a0d    ..CL    DCD    1279461901
        0x00001490:    65475f4b    K_Ge    DCD    1699176267
        0x00001494:    55504374    tCPU    DCD    1431323508
        0x00001498:    71657246    Freq    DCD    1902473798
        0x0000149c:    25203a20     : %    DCD    622869024
        0x000014a0:    0a0d6438    8d..    DCD    168649784
        0x000014a4:    00000000    ....    DCD    0
        0x000014a8:    5f4b4c43    CLK_    DCD    1598770243
        0x000014ac:    48746547    GetH    DCD    1215587655
        0x000014b0:    72465458    XTFr    DCD    1917211736
        0x000014b4:    3a207165    eq :    DCD    975204709
        0x000014b8:    64382520     %8d    DCD    1681401120
        0x000014bc:    00000a0d    ....    DCD    2573
        0x000014c0:    5f4b4c43    CLK_    DCD    1598770243
        0x000014c4:    4c746547    GetL    DCD    1282696519
        0x000014c8:    72465458    XTFr    DCD    1917211736
        0x000014cc:    3a207165    eq :    DCD    975204709
        0x000014d0:    64382520     %8d    DCD    1681401120
        0x000014d4:    00000a0d    ....    DCD    2573
        0x000014d8:    5f4b4c43    CLK_    DCD    1598770243
        0x000014dc:    50746547    GetP    DCD    1349805383
        0x000014e0:    304b4c43    CLK0    DCD    810241091
        0x000014e4:    71657246    Freq    DCD    1902473798
        0x000014e8:    25203a20     : %    DCD    622869024
        0x000014ec:    0a0d6438    8d..    DCD    168649784
        0x000014f0:    00000000    ....    DCD    0
        0x000014f4:    5f4b4c43    CLK_    DCD    1598770243
        0x000014f8:    50746547    GetP    DCD    1349805383
        0x000014fc:    314b4c43    CLK1    DCD    827018307
        0x00001500:    71657246    Freq    DCD    1902473798
        0x00001504:    25203a20     : %    DCD    622869024
        0x00001508:    0a0d6438    8d..    DCD    168649784
        0x0000150c:    00000000    ....    DCD    0
        0x00001510:    20000032    2..     DCD    536870962
    $t
    i.UART0_Process
    UART0_Process
        0x00001514:    b570        p.      PUSH     {r4-r6,lr}
        0x00001516:    4c22        "L      LDR      r4,[pc,#136] ; [0x15a0] = 0x20000010
        0x00001518:    4d20         M      LDR      r5,[pc,#128] ; [0x159c] = 0x40058000
        0x0000151a:    68e1        .h      LDR      r1,[r4,#0xc]
        0x0000151c:    2844        D(      CMP      r0,#0x44
        0x0000151e:    d022        ".      BEQ      0x1566 ; UART0_Process + 82
        0x00001520:    dc08        ..      BGT      0x1534 ; UART0_Process + 32
        0x00001522:    2831        1(      CMP      r0,#0x31
        0x00001524:    d02f        /.      BEQ      0x1586 ; UART0_Process + 114
        0x00001526:    2832        2(      CMP      r0,#0x32
        0x00001528:    d030        0.      BEQ      0x158c ; UART0_Process + 120
        0x0000152a:    2833        3(      CMP      r0,#0x33
        0x0000152c:    d031        1.      BEQ      0x1592 ; UART0_Process + 126
        0x0000152e:    2841        A(      CMP      r0,#0x41
        0x00001530:    d128        (.      BNE      0x1584 ; UART0_Process + 112
        0x00001532:    e010        ..      B        0x1556 ; UART0_Process + 66
        0x00001534:    285a        Z(      CMP      r0,#0x5a
        0x00001536:    d005        ..      BEQ      0x1544 ; UART0_Process + 48
        0x00001538:    2861        a(      CMP      r0,#0x61
        0x0000153a:    d00c        ..      BEQ      0x1556 ; UART0_Process + 66
        0x0000153c:    2864        d(      CMP      r0,#0x64
        0x0000153e:    d012        ..      BEQ      0x1566 ; UART0_Process + 82
        0x00001540:    287a        z(      CMP      r0,#0x7a
        0x00001542:    d11f        ..      BNE      0x1584 ; UART0_Process + 112
        0x00001544:    f3bf8f4f    ..O.    DSB      
        0x00001548:    4917        .I      LDR      r1,[pc,#92] ; [0x15a8] = 0xe000ed00
        0x0000154a:    4816        .H      LDR      r0,[pc,#88] ; [0x15a4] = 0x5fa0004
        0x0000154c:    60c8        .`      STR      r0,[r1,#0xc]
        0x0000154e:    f3bf8f4f    ..O.    DSB      
        0x00001552:    bf00        ..      NOP      
        0x00001554:    e7fd        ..      B        0x1552 ; UART0_Process + 62
        0x00001556:    4815        .H      LDR      r0,[pc,#84] ; [0x15ac] = 0x16e3600
        0x00001558:    4281        .B      CMP      r1,r0
        0x0000155a:    d201        ..      BCS      0x1560 ; UART0_Process + 76
        0x0000155c:    4608        .F      MOV      r0,r1
        0x0000155e:    3064        d0      ADDS     r0,r0,#0x64
        0x00001560:    4601        .F      MOV      r1,r0
        0x00001562:    60e0        .`      STR      r0,[r4,#0xc]
        0x00001564:    e003        ..      B        0x156e ; UART0_Process + 90
        0x00001566:    2900        .)      CMP      r1,#0
        0x00001568:    d000        ..      BEQ      0x156c ; UART0_Process + 88
        0x0000156a:    1e49        I.      SUBS     r1,r1,#1
        0x0000156c:    60e1        .`      STR      r1,[r4,#0xc]
        0x0000156e:    a010        ..      ADR      r0,{pc}+0x42 ; 0x15b0
        0x00001570:    f000f8a8    ....    BL       __0printf ; 0x16c4
        0x00001574:    2332        2#      MOVS     r3,#0x32
        0x00001576:    2100        .!      MOVS     r1,#0
        0x00001578:    4628        (F      MOV      r0,r5
        0x0000157a:    68e2        .h      LDR      r2,[r4,#0xc]
        0x0000157c:    f7fffc92    ....    BL       PWM_ConfigOutputChannel ; 0xea4
        0x00001580:    f7fffc2a    ..*.    BL       PDMA_TimerCapture_Start ; 0xdd8
        0x00001584:    bd70        p.      POP      {r4-r6,pc}
        0x00001586:    68a0        .h      LDR      r0,[r4,#8]
        0x00001588:    2102        .!      MOVS     r1,#2
        0x0000158a:    e004        ..      B        0x1596 ; UART0_Process + 130
        0x0000158c:    68a0        .h      LDR      r0,[r4,#8]
        0x0000158e:    2104        .!      MOVS     r1,#4
        0x00001590:    e001        ..      B        0x1596 ; UART0_Process + 130
        0x00001592:    68a0        .h      LDR      r0,[r4,#8]
        0x00001594:    2108        .!      MOVS     r1,#8
        0x00001596:    4308        .C      ORRS     r0,r0,r1
        0x00001598:    60a0        .`      STR      r0,[r4,#8]
        0x0000159a:    bd70        p.      POP      {r4-r6,pc}
    $d
        0x0000159c:    40058000    ...@    DCD    1074102272
        0x000015a0:    20000010    ...     DCD    536870928
        0x000015a4:    05fa0004    ....    DCD    100270084
        0x000015a8:    e000ed00    ....    DCD    3758157056
        0x000015ac:    016e3600    .6n.    DCD    24000000
        0x000015b0:    71657246    Freq    DCD    1902473798
        0x000015b4:    25203a20     : %    DCD    622869024
        0x000015b8:    0d206434    4d .    DCD    220226612
        0x000015bc:    0000000a    ....    DCD    10
    $t
    i.UART_EnableInt
    UART_EnableInt
        0x000015c0:    6842        Bh      LDR      r2,[r0,#4]
        0x000015c2:    430a        .C      ORRS     r2,r2,r1
        0x000015c4:    6042        B`      STR      r2,[r0,#4]
        0x000015c6:    4770        pG      BX       lr
    i.UART_Open
    UART_Open
        0x000015c8:    b5f0        ..      PUSH     {r4-r7,lr}
        0x000015ca:    b087        ..      SUB      sp,sp,#0x1c
        0x000015cc:    460f        .F      MOV      r7,r1
        0x000015ce:    4604        .F      MOV      r4,r0
        0x000015d0:    2500        .%      MOVS     r5,#0
        0x000015d2:    462e        .F      MOV      r6,r5
        0x000015d4:    2218        ."      MOVS     r2,#0x18
        0x000015d6:    492e        .I      LDR      r1,[pc,#184] ; [0x1690] = 0x20e8
        0x000015d8:    4668        hF      MOV      r0,sp
        0x000015da:    f7fefdcd    ....    BL       __aeabi_memcpy ; 0x178
        0x000015de:    492d        -I      LDR      r1,[pc,#180] ; [0x1694] = 0x40070000
        0x000015e0:    482d        -H      LDR      r0,[pc,#180] ; [0x1698] = 0x40000200
        0x000015e2:    4a2e        .J      LDR      r2,[pc,#184] ; [0x169c] = 0x40072000
        0x000015e4:    428c        .B      CMP      r4,r1
        0x000015e6:    d105        ..      BNE      0x15f4 ; UART_Open + 44
        0x000015e8:    6943        Ci      LDR      r3,[r0,#0x14]
        0x000015ea:    6a00        .j      LDR      r0,[r0,#0x20]
        0x000015ec:    015b        [.      LSLS     r3,r3,#5
        0x000015ee:    0f5d        ].      LSRS     r5,r3,#29
        0x000015f0:    0a00        ..      LSRS     r0,r0,#8
        0x000015f2:    e00f        ..      B        0x1614 ; UART_Open + 76
        0x000015f4:    4b2a        *K      LDR      r3,[pc,#168] ; [0x16a0] = 0x40071000
        0x000015f6:    429c        .B      CMP      r4,r3
        0x000015f8:    d106        ..      BNE      0x1608 ; UART_Open + 64
        0x000015fa:    6943        Ci      LDR      r3,[r0,#0x14]
        0x000015fc:    6a00        .j      LDR      r0,[r0,#0x20]
        0x000015fe:    005b        [.      LSLS     r3,r3,#1
        0x00001600:    0f5d        ].      LSRS     r5,r3,#29
        0x00001602:    0400        ..      LSLS     r0,r0,#16
        0x00001604:    0f06        ..      LSRS     r6,r0,#28
        0x00001606:    e007        ..      B        0x1618 ; UART_Open + 80
        0x00001608:    4294        .B      CMP      r4,r2
        0x0000160a:    d105        ..      BNE      0x1618 ; UART_Open + 80
        0x0000160c:    69c3        .i      LDR      r3,[r0,#0x1c]
        0x0000160e:    6b00        .k      LDR      r0,[r0,#0x30]
        0x00001610:    015b        [.      LSLS     r3,r3,#5
        0x00001612:    0f5d        ].      LSRS     r5,r3,#29
        0x00001614:    0706        ..      LSLS     r6,r0,#28
        0x00001616:    0f36        6.      LSRS     r6,r6,#28
        0x00001618:    2000        .       MOVS     r0,#0
        0x0000161a:    6320         c      STR      r0,[r4,#0x30]
        0x0000161c:    2003        .       MOVS     r0,#3
        0x0000161e:    60e0        .`      STR      r0,[r4,#0xc]
        0x00001620:    68a0        .h      LDR      r0,[r4,#8]
        0x00001622:    4b20         K      LDR      r3,[pc,#128] ; [0x16a4] = 0xfff0ff0f
        0x00001624:    4018        .@      ANDS     r0,r0,r3
        0x00001626:    60a0        .`      STR      r0,[r4,#8]
        0x00001628:    2d01        .-      CMP      r5,#1
        0x0000162a:    d002        ..      BEQ      0x1632 ; UART_Open + 106
        0x0000162c:    2d04        .-      CMP      r5,#4
        0x0000162e:    d004        ..      BEQ      0x163a ; UART_Open + 114
        0x00001630:    e00d        ..      B        0x164e ; UART_Open + 134
        0x00001632:    f7fff8cd    ....    BL       CLK_GetPLLClockFreq ; 0x7d0
        0x00001636:    9001        ..      STR      r0,[sp,#4]
        0x00001638:    e009        ..      B        0x164e ; UART_Open + 134
        0x0000163a:    428c        .B      CMP      r4,r1
        0x0000163c:    d001        ..      BEQ      0x1642 ; UART_Open + 122
        0x0000163e:    4294        .B      CMP      r4,r2
        0x00001640:    d102        ..      BNE      0x1648 ; UART_Open + 128
        0x00001642:    f7fff8a5    ....    BL       CLK_GetPCLK0Freq ; 0x790
        0x00001646:    e001        ..      B        0x164c ; UART_Open + 132
        0x00001648:    f7fff8b2    ....    BL       CLK_GetPCLK1Freq ; 0x7b0
        0x0000164c:    9004        ..      STR      r0,[sp,#0x10]
        0x0000164e:    2f00        ./      CMP      r7,#0
        0x00001650:    d01b        ..      BEQ      0x168a ; UART_Open + 194
        0x00001652:    00a9        ..      LSLS     r1,r5,#2
        0x00001654:    4668        hF      MOV      r0,sp
        0x00001656:    5840        @X      LDR      r0,[r0,r1]
        0x00001658:    1c71        q.      ADDS     r1,r6,#1
        0x0000165a:    f7fefd77    ..w.    BL       __aeabi_uidiv ; 0x14c
        0x0000165e:    4605        .F      MOV      r5,r0
        0x00001660:    0879        y.      LSRS     r1,r7,#1
        0x00001662:    1840        @.      ADDS     r0,r0,r1
        0x00001664:    4639        9F      MOV      r1,r7
        0x00001666:    f7fefd71    ..q.    BL       __aeabi_uidiv ; 0x14c
        0x0000166a:    490f        .I      LDR      r1,[pc,#60] ; [0x16a8] = 0xffff
        0x0000166c:    1e80        ..      SUBS     r0,r0,#2
        0x0000166e:    4288        .B      CMP      r0,r1
        0x00001670:    d907        ..      BLS      0x1682 ; UART_Open + 186
        0x00001672:    00f9        ..      LSLS     r1,r7,#3
        0x00001674:    1868        h.      ADDS     r0,r5,r1
        0x00001676:    4639        9F      MOV      r1,r7
        0x00001678:    f7fefd68    ..h.    BL       __aeabi_uidiv ; 0x14c
        0x0000167c:    0900        ..      LSRS     r0,r0,#4
        0x0000167e:    1e80        ..      SUBS     r0,r0,#2
        0x00001680:    e002        ..      B        0x1688 ; UART_Open + 192
        0x00001682:    2103        .!      MOVS     r1,#3
        0x00001684:    0709        ..      LSLS     r1,r1,#28
        0x00001686:    4308        .C      ORRS     r0,r0,r1
        0x00001688:    6260        `b      STR      r0,[r4,#0x24]
        0x0000168a:    b007        ..      ADD      sp,sp,#0x1c
        0x0000168c:    bdf0        ..      POP      {r4-r7,pc}
    $d
        0x0000168e:    0000        ..      DCW    0
        0x00001690:    000020e8    . ..    DCD    8424
        0x00001694:    40070000    ...@    DCD    1074200576
        0x00001698:    40000200    ...@    DCD    1073742336
        0x0000169c:    40072000    . .@    DCD    1074208768
        0x000016a0:    40071000    ...@    DCD    1074204672
        0x000016a4:    fff0ff0f    ....    DCD    4293984015
        0x000016a8:    0000ffff    ....    DCD    65535
    $t
    i.UART_SetTimeoutCnt
    UART_SetTimeoutCnt
        0x000016ac:    6a02        .j      LDR      r2,[r0,#0x20]
        0x000016ae:    0a12        ..      LSRS     r2,r2,#8
        0x000016b0:    0212        ..      LSLS     r2,r2,#8
        0x000016b2:    430a        .C      ORRS     r2,r2,r1
        0x000016b4:    6202        .b      STR      r2,[r0,#0x20]
        0x000016b6:    6841        Ah      LDR      r1,[r0,#4]
        0x000016b8:    2201        ."      MOVS     r2,#1
        0x000016ba:    02d2        ..      LSLS     r2,r2,#11
        0x000016bc:    4311        .C      ORRS     r1,r1,r2
        0x000016be:    6041        A`      STR      r1,[r0,#4]
        0x000016c0:    4770        pG      BX       lr
        0x000016c2:    0000        ..      MOVS     r0,r0
    i.__0printf
    __0printf
    __1printf
    __2printf
    __c89printf
    printf
        0x000016c4:    b40f        ..      PUSH     {r0-r3}
        0x000016c6:    b510        ..      PUSH     {r4,lr}
        0x000016c8:    a903        ..      ADD      r1,sp,#0xc
        0x000016ca:    4b04        .K      LDR      r3,[pc,#16] ; [0x16dc] = 0x1ff9
        0x000016cc:    4a04        .J      LDR      r2,[pc,#16] ; [0x16e0] = 0x2000000c
        0x000016ce:    9802        ..      LDR      r0,[sp,#8]
        0x000016d0:    f000f8f6    ....    BL       _printf_core ; 0x18c0
        0x000016d4:    bc10        ..      POP      {r4}
        0x000016d6:    bc08        ..      POP      {r3}
        0x000016d8:    b004        ..      ADD      sp,sp,#0x10
        0x000016da:    4718        .G      BX       r3
    $d
        0x000016dc:    00001ff9    ....    DCD    8185
        0x000016e0:    2000000c    ...     DCD    536870924
    $t
    i.__ARM_clz
    __ARM_clz
        0x000016e4:    2120         !      MOVS     r1,#0x20
        0x000016e6:    0c02        ..      LSRS     r2,r0,#16
        0x000016e8:    d001        ..      BEQ      0x16ee ; __ARM_clz + 10
        0x000016ea:    2110        .!      MOVS     r1,#0x10
        0x000016ec:    4610        .F      MOV      r0,r2
        0x000016ee:    0a02        ..      LSRS     r2,r0,#8
        0x000016f0:    d001        ..      BEQ      0x16f6 ; __ARM_clz + 18
        0x000016f2:    4610        .F      MOV      r0,r2
        0x000016f4:    3908        .9      SUBS     r1,r1,#8
        0x000016f6:    0902        ..      LSRS     r2,r0,#4
        0x000016f8:    d001        ..      BEQ      0x16fe ; __ARM_clz + 26
        0x000016fa:    4610        .F      MOV      r0,r2
        0x000016fc:    1f09        ..      SUBS     r1,r1,#4
        0x000016fe:    0882        ..      LSRS     r2,r0,#2
        0x00001700:    d001        ..      BEQ      0x1706 ; __ARM_clz + 34
        0x00001702:    4610        .F      MOV      r0,r2
        0x00001704:    1e89        ..      SUBS     r1,r1,#2
        0x00001706:    0842        B.      LSRS     r2,r0,#1
        0x00001708:    d001        ..      BEQ      0x170e ; __ARM_clz + 42
        0x0000170a:    1e88        ..      SUBS     r0,r1,#2
        0x0000170c:    4770        pG      BX       lr
        0x0000170e:    1a08        ..      SUBS     r0,r1,r0
        0x00001710:    4770        pG      BX       lr
    i.__ARM_common_switch8
    __ARM_common_switch8
        0x00001712:    b430        0.      PUSH     {r4,r5}
        0x00001714:    4674        tF      MOV      r4,lr
        0x00001716:    1e64        d.      SUBS     r4,r4,#1
        0x00001718:    7825        %x      LDRB     r5,[r4,#0]
        0x0000171a:    1c64        d.      ADDS     r4,r4,#1
        0x0000171c:    42ab        .B      CMP      r3,r5
        0x0000171e:    d200        ..      BCS      0x1722 ; __ARM_common_switch8 + 16
        0x00001720:    461d        .F      MOV      r5,r3
        0x00001722:    5d63        c]      LDRB     r3,[r4,r5]
        0x00001724:    005b        [.      LSLS     r3,r3,#1
        0x00001726:    18e3        ..      ADDS     r3,r4,r3
        0x00001728:    bc30        0.      POP      {r4,r5}
        0x0000172a:    4718        .G      BX       r3
    i.__scatterload_copy
    __scatterload_copy
        0x0000172c:    e002        ..      B        0x1734 ; __scatterload_copy + 8
        0x0000172e:    c808        ..      LDM      r0!,{r3}
        0x00001730:    1f12        ..      SUBS     r2,r2,#4
        0x00001732:    c108        ..      STM      r1!,{r3}
        0x00001734:    2a00        .*      CMP      r2,#0
        0x00001736:    d1fa        ..      BNE      0x172e ; __scatterload_copy + 2
        0x00001738:    4770        pG      BX       lr
    i.__scatterload_null
    __scatterload_null
        0x0000173a:    4770        pG      BX       lr
    i.__scatterload_zeroinit
    __scatterload_zeroinit
        0x0000173c:    2000        .       MOVS     r0,#0
        0x0000173e:    e001        ..      B        0x1744 ; __scatterload_zeroinit + 8
        0x00001740:    c101        ..      STM      r1!,{r0}
        0x00001742:    1f12        ..      SUBS     r2,r2,#4
        0x00001744:    2a00        .*      CMP      r2,#0
        0x00001746:    d1fb        ..      BNE      0x1740 ; __scatterload_zeroinit + 4
        0x00001748:    4770        pG      BX       lr
        0x0000174a:    0000        ..      MOVS     r0,r0
    i._fp_digits
    _fp_digits
        0x0000174c:    b5f0        ..      PUSH     {r4-r7,lr}
        0x0000174e:    b41f        ..      PUSH     {r0-r4}
        0x00001750:    b086        ..      SUB      sp,sp,#0x18
        0x00001752:    9809        ..      LDR      r0,[sp,#0x24]
        0x00001754:    9a08        ..      LDR      r2,[sp,#0x20]
        0x00001756:    0d03        ..      LSRS     r3,r0,#20
        0x00001758:    2100        .!      MOVS     r1,#0
        0x0000175a:    4302        .C      ORRS     r2,r2,r0
        0x0000175c:    d014        ..      BEQ      0x1788 ; _fp_digits + 60
        0x0000175e:    4851        QH      LDR      r0,[pc,#324] ; [0x18a4] = 0xfffffc01
        0x00001760:    4a51        QJ      LDR      r2,[pc,#324] ; [0x18a8] = 0x4d10
        0x00001762:    1818        ..      ADDS     r0,r3,r0
        0x00001764:    4350        PC      MULS     r0,r2,r0
        0x00001766:    1405        ..      ASRS     r5,r0,#16
        0x00001768:    9811        ..      LDR      r0,[sp,#0x44]
        0x0000176a:    2801        .(      CMP      r0,#1
        0x0000176c:    9810        ..      LDR      r0,[sp,#0x40]
        0x0000176e:    d01a        ..      BEQ      0x17a6 ; _fp_digits + 90
        0x00001770:    1a28        (.      SUBS     r0,r5,r0
        0x00001772:    1c40        @.      ADDS     r0,r0,#1
        0x00001774:    2600        .&      MOVS     r6,#0
        0x00001776:    4f4d        MO      LDR      r7,[pc,#308] ; [0x18ac] = 0x40140000
        0x00001778:    494d        MI      LDR      r1,[pc,#308] ; [0x18b0] = 0x3ff00000
        0x0000177a:    9600        ..      STR      r6,[sp,#0]
        0x0000177c:    9101        ..      STR      r1,[sp,#4]
        0x0000177e:    9004        ..      STR      r0,[sp,#0x10]
        0x00001780:    2800        .(      CMP      r0,#0
        0x00001782:    da12        ..      BGE      0x17aa ; _fp_digits + 94
        0x00001784:    4244        DB      RSBS     r4,r0,#0
        0x00001786:    e011        ..      B        0x17ac ; _fp_digits + 96
        0x00001788:    9811        ..      LDR      r0,[sp,#0x44]
        0x0000178a:    2401        .$      MOVS     r4,#1
        0x0000178c:    a349        I.      ADR      r3,{pc}+0x128 ; 0x18b4
        0x0000178e:    2801        .(      CMP      r0,#1
        0x00001790:    d101        ..      BNE      0x1796 ; _fp_digits + 74
        0x00001792:    9810        ..      LDR      r0,[sp,#0x40]
        0x00001794:    43c1        .C      MVNS     r1,r0
        0x00001796:    9806        ..      LDR      r0,[sp,#0x18]
        0x00001798:    9a11        ..      LDR      r2,[sp,#0x44]
        0x0000179a:    6084        .`      STR      r4,[r0,#8]
        0x0000179c:    6003        .`      STR      r3,[r0,#0]
        0x0000179e:    60c2        .`      STR      r2,[r0,#0xc]
        0x000017a0:    6041        A`      STR      r1,[r0,#4]
        0x000017a2:    b00b        ..      ADD      sp,sp,#0x2c
        0x000017a4:    bdf0        ..      POP      {r4-r7,pc}
        0x000017a6:    4240        @B      RSBS     r0,r0,#0
        0x000017a8:    e7e4        ..      B        0x1774 ; _fp_digits + 40
        0x000017aa:    4604        .F      MOV      r4,r0
        0x000017ac:    0521        !.      LSLS     r1,r4,#20
        0x000017ae:    2000        .       MOVS     r0,#0
        0x000017b0:    4a3f        ?J      LDR      r2,[pc,#252] ; [0x18b0] = 0x3ff00000
        0x000017b2:    1c00        ..      ADDS     r0,r0,#0
        0x000017b4:    4151        QA      ADCS     r1,r1,r2
        0x000017b6:    9103        ..      STR      r1,[sp,#0xc]
        0x000017b8:    9002        ..      STR      r0,[sp,#8]
        0x000017ba:    e012        ..      B        0x17e2 ; _fp_digits + 150
        0x000017bc:    07e0        ..      LSLS     r0,r4,#31
        0x000017be:    d007        ..      BEQ      0x17d0 ; _fp_digits + 132
        0x000017c0:    4632        2F      MOV      r2,r6
        0x000017c2:    463b        ;F      MOV      r3,r7
        0x000017c4:    9901        ..      LDR      r1,[sp,#4]
        0x000017c6:    9800        ..      LDR      r0,[sp,#0]
        0x000017c8:    f7fefec2    ....    BL       __aeabi_dmul ; 0x550
        0x000017cc:    9101        ..      STR      r1,[sp,#4]
        0x000017ce:    9000        ..      STR      r0,[sp,#0]
        0x000017d0:    4632        2F      MOV      r2,r6
        0x000017d2:    463b        ;F      MOV      r3,r7
        0x000017d4:    4610        .F      MOV      r0,r2
        0x000017d6:    4619        .F      MOV      r1,r3
        0x000017d8:    f7fefeba    ....    BL       __aeabi_dmul ; 0x550
        0x000017dc:    4606        .F      MOV      r6,r0
        0x000017de:    460f        .F      MOV      r7,r1
        0x000017e0:    1064        d.      ASRS     r4,r4,#1
        0x000017e2:    2c00        .,      CMP      r4,#0
        0x000017e4:    d1ea        ..      BNE      0x17bc ; _fp_digits + 112
        0x000017e6:    9804        ..      LDR      r0,[sp,#0x10]
        0x000017e8:    9b03        ..      LDR      r3,[sp,#0xc]
        0x000017ea:    2800        .(      CMP      r0,#0
        0x000017ec:    9a02        ..      LDR      r2,[sp,#8]
        0x000017ee:    9909        ..      LDR      r1,[sp,#0x24]
        0x000017f0:    9808        ..      LDR      r0,[sp,#0x20]
        0x000017f2:    da06        ..      BGE      0x1802 ; _fp_digits + 182
        0x000017f4:    f7fefeac    ....    BL       __aeabi_dmul ; 0x550
        0x000017f8:    9b01        ..      LDR      r3,[sp,#4]
        0x000017fa:    9a00        ..      LDR      r2,[sp,#0]
        0x000017fc:    f7fefea8    ....    BL       __aeabi_dmul ; 0x550
        0x00001800:    e005        ..      B        0x180e ; _fp_digits + 194
        0x00001802:    f7fefcdd    ....    BL       __aeabi_ddiv ; 0x1c0
        0x00001806:    9b01        ..      LDR      r3,[sp,#4]
        0x00001808:    9a00        ..      LDR      r2,[sp,#0]
        0x0000180a:    f7fefcd9    ....    BL       __aeabi_ddiv ; 0x1c0
        0x0000180e:    4604        .F      MOV      r4,r0
        0x00001810:    460e        .F      MOV      r6,r1
        0x00001812:    2200        ."      MOVS     r2,#0
        0x00001814:    4b28        (K      LDR      r3,[pc,#160] ; [0x18b8] = 0x43f00000
        0x00001816:    f7feff23    ..#.    BL       __aeabi_cdrcmple ; 0x660
        0x0000181a:    d803        ..      BHI      0x1824 ; _fp_digits + 216
        0x0000181c:    2000        .       MOVS     r0,#0
        0x0000181e:    43c0        .C      MVNS     r0,r0
        0x00001820:    4601        .F      MOV      r1,r0
        0x00001822:    e007        ..      B        0x1834 ; _fp_digits + 232
        0x00001824:    2200        ."      MOVS     r2,#0
        0x00001826:    4b25        %K      LDR      r3,[pc,#148] ; [0x18bc] = 0x3fe00000
        0x00001828:    4620         F      MOV      r0,r4
        0x0000182a:    4631        1F      MOV      r1,r6
        0x0000182c:    f7fefdde    ....    BL       __aeabi_dadd ; 0x3ec
        0x00001830:    f7fefef6    ....    BL       __aeabi_d2ulz ; 0x620
        0x00001834:    2410        .$      MOVS     r4,#0x10
        0x00001836:    e009        ..      B        0x184c ; _fp_digits + 256
        0x00001838:    2c00        .,      CMP      r4,#0
        0x0000183a:    db0a        ..      BLT      0x1852 ; _fp_digits + 262
        0x0000183c:    220a        ."      MOVS     r2,#0xa
        0x0000183e:    2300        .#      MOVS     r3,#0
        0x00001840:    f7fefd44    ..D.    BL       __aeabi_uldivmod ; 0x2cc
        0x00001844:    9b07        ..      LDR      r3,[sp,#0x1c]
        0x00001846:    3230        02      ADDS     r2,r2,#0x30
        0x00001848:    551a        .U      STRB     r2,[r3,r4]
        0x0000184a:    1e64        d.      SUBS     r4,r4,#1
        0x0000184c:    4602        .F      MOV      r2,r0
        0x0000184e:    430a        .C      ORRS     r2,r2,r1
        0x00001850:    d1f2        ..      BNE      0x1838 ; _fp_digits + 236
        0x00001852:    2211        ."      MOVS     r2,#0x11
        0x00001854:    1c64        d.      ADDS     r4,r4,#1
        0x00001856:    9b07        ..      LDR      r3,[sp,#0x1c]
        0x00001858:    1b12        ..      SUBS     r2,r2,r4
        0x0000185a:    191c        ..      ADDS     r4,r3,r4
        0x0000185c:    9b11        ..      LDR      r3,[sp,#0x44]
        0x0000185e:    2b01        .+      CMP      r3,#1
        0x00001860:    d003        ..      BEQ      0x186a ; _fp_digits + 286
        0x00001862:    2301        .#      MOVS     r3,#1
        0x00001864:    4308        .C      ORRS     r0,r0,r1
        0x00001866:    d10e        ..      BNE      0x1886 ; _fp_digits + 314
        0x00001868:    e00a        ..      B        0x1880 ; _fp_digits + 308
        0x0000186a:    4308        .C      ORRS     r0,r0,r1
        0x0000186c:    d004        ..      BEQ      0x1878 ; _fp_digits + 300
        0x0000186e:    2011        .       MOVS     r0,#0x11
        0x00001870:    9010        ..      STR      r0,[sp,#0x40]
        0x00001872:    2000        .       MOVS     r0,#0
        0x00001874:    9011        ..      STR      r0,[sp,#0x44]
        0x00001876:    e777        w.      B        0x1768 ; _fp_digits + 28
        0x00001878:    9810        ..      LDR      r0,[sp,#0x40]
        0x0000187a:    1a15        ..      SUBS     r5,r2,r0
        0x0000187c:    1e6d        m.      SUBS     r5,r5,#1
        0x0000187e:    e00b        ..      B        0x1898 ; _fp_digits + 332
        0x00001880:    9810        ..      LDR      r0,[sp,#0x40]
        0x00001882:    4282        .B      CMP      r2,r0
        0x00001884:    dd02        ..      BLE      0x188c ; _fp_digits + 320
        0x00001886:    2300        .#      MOVS     r3,#0
        0x00001888:    1c6d        m.      ADDS     r5,r5,#1
        0x0000188a:    e003        ..      B        0x1894 ; _fp_digits + 328
        0x0000188c:    4282        .B      CMP      r2,r0
        0x0000188e:    da01        ..      BGE      0x1894 ; _fp_digits + 328
        0x00001890:    2300        .#      MOVS     r3,#0
        0x00001892:    1e6d        m.      SUBS     r5,r5,#1
        0x00001894:    2b00        .+      CMP      r3,#0
        0x00001896:    d0ee        ..      BEQ      0x1876 ; _fp_digits + 298
        0x00001898:    9806        ..      LDR      r0,[sp,#0x18]
        0x0000189a:    9911        ..      LDR      r1,[sp,#0x44]
        0x0000189c:    6082        .`      STR      r2,[r0,#8]
        0x0000189e:    60c1        .`      STR      r1,[r0,#0xc]
        0x000018a0:    c030        0.      STM      r0!,{r4,r5}
        0x000018a2:    e77e        ~.      B        0x17a2 ; _fp_digits + 86
    $d
        0x000018a4:    fffffc01    ....    DCD    4294966273
        0x000018a8:    00004d10    .M..    DCD    19728
        0x000018ac:    40140000    ...@    DCD    1075052544
        0x000018b0:    3ff00000    ...?    DCD    1072693248
        0x000018b4:    00000030    0...    DCD    48
        0x000018b8:    43f00000    ...C    DCD    1139802112
        0x000018bc:    3fe00000    ...?    DCD    1071644672
    $t
    i._printf_core
    _printf_core
        0x000018c0:    b5ff        ..      PUSH     {r0-r7,lr}
        0x000018c2:    b097        ..      SUB      sp,sp,#0x5c
        0x000018c4:    4606        .F      MOV      r6,r0
        0x000018c6:    2500        .%      MOVS     r5,#0
        0x000018c8:    e218        ..      B        0x1cfc ; _printf_core + 1084
        0x000018ca:    2825        %(      CMP      r0,#0x25
        0x000018cc:    d177        w.      BNE      0x19be ; _printf_core + 254
        0x000018ce:    2400        .$      MOVS     r4,#0
        0x000018d0:    4627        'F      MOV      r7,r4
        0x000018d2:    49fd        .I      LDR      r1,[pc,#1012] ; [0x1cc8] = 0x12809
        0x000018d4:    9404        ..      STR      r4,[sp,#0x10]
        0x000018d6:    e000        ..      B        0x18da ; _printf_core + 26
        0x000018d8:    4304        .C      ORRS     r4,r4,r0
        0x000018da:    1c76        v.      ADDS     r6,r6,#1
        0x000018dc:    7832        2x      LDRB     r2,[r6,#0]
        0x000018de:    2001        .       MOVS     r0,#1
        0x000018e0:    3a20         :      SUBS     r2,r2,#0x20
        0x000018e2:    4090        .@      LSLS     r0,r0,r2
        0x000018e4:    4208        .B      TST      r0,r1
        0x000018e6:    d1f7        ..      BNE      0x18d8 ; _printf_core + 24
        0x000018e8:    7830        0x      LDRB     r0,[r6,#0]
        0x000018ea:    282a        *(      CMP      r0,#0x2a
        0x000018ec:    d00e        ..      BEQ      0x190c ; _printf_core + 76
        0x000018ee:    2202        ."      MOVS     r2,#2
        0x000018f0:    7830        0x      LDRB     r0,[r6,#0]
        0x000018f2:    4601        .F      MOV      r1,r0
        0x000018f4:    3930        09      SUBS     r1,r1,#0x30
        0x000018f6:    2909        .)      CMP      r1,#9
        0x000018f8:    d816        ..      BHI      0x1928 ; _printf_core + 104
        0x000018fa:    9904        ..      LDR      r1,[sp,#0x10]
        0x000018fc:    230a        .#      MOVS     r3,#0xa
        0x000018fe:    4359        YC      MULS     r1,r3,r1
        0x00001900:    3930        09      SUBS     r1,r1,#0x30
        0x00001902:    1840        @.      ADDS     r0,r0,r1
        0x00001904:    4314        .C      ORRS     r4,r4,r2
        0x00001906:    1c76        v.      ADDS     r6,r6,#1
        0x00001908:    9004        ..      STR      r0,[sp,#0x10]
        0x0000190a:    e7f1        ..      B        0x18f0 ; _printf_core + 48
        0x0000190c:    9818        ..      LDR      r0,[sp,#0x60]
        0x0000190e:    c802        ..      LDM      r0!,{r1}
        0x00001910:    9104        ..      STR      r1,[sp,#0x10]
        0x00001912:    9018        ..      STR      r0,[sp,#0x60]
        0x00001914:    2900        .)      CMP      r1,#0
        0x00001916:    da04        ..      BGE      0x1922 ; _printf_core + 98
        0x00001918:    2001        .       MOVS     r0,#1
        0x0000191a:    0340        @.      LSLS     r0,r0,#13
        0x0000191c:    4304        .C      ORRS     r4,r4,r0
        0x0000191e:    4248        HB      RSBS     r0,r1,#0
        0x00001920:    9004        ..      STR      r0,[sp,#0x10]
        0x00001922:    2002        .       MOVS     r0,#2
        0x00001924:    4304        .C      ORRS     r4,r4,r0
        0x00001926:    1c76        v.      ADDS     r6,r6,#1
        0x00001928:    7830        0x      LDRB     r0,[r6,#0]
        0x0000192a:    282e        .(      CMP      r0,#0x2e
        0x0000192c:    d114        ..      BNE      0x1958 ; _printf_core + 152
        0x0000192e:    2004        .       MOVS     r0,#4
        0x00001930:    4304        .C      ORRS     r4,r4,r0
        0x00001932:    7870        px      LDRB     r0,[r6,#1]
        0x00001934:    1c76        v.      ADDS     r6,r6,#1
        0x00001936:    282a        *(      CMP      r0,#0x2a
        0x00001938:    d109        ..      BNE      0x194e ; _printf_core + 142
        0x0000193a:    9818        ..      LDR      r0,[sp,#0x60]
        0x0000193c:    1c76        v.      ADDS     r6,r6,#1
        0x0000193e:    c880        ..      LDM      r0!,{r7}
        0x00001940:    9018        ..      STR      r0,[sp,#0x60]
        0x00001942:    e009        ..      B        0x1958 ; _printf_core + 152
        0x00001944:    210a        .!      MOVS     r1,#0xa
        0x00001946:    434f        OC      MULS     r7,r1,r7
        0x00001948:    3f30        0?      SUBS     r7,r7,#0x30
        0x0000194a:    19c7        ..      ADDS     r7,r0,r7
        0x0000194c:    1c76        v.      ADDS     r6,r6,#1
        0x0000194e:    7830        0x      LDRB     r0,[r6,#0]
        0x00001950:    4601        .F      MOV      r1,r0
        0x00001952:    3930        09      SUBS     r1,r1,#0x30
        0x00001954:    2909        .)      CMP      r1,#9
        0x00001956:    d9f5        ..      BLS      0x1944 ; _printf_core + 132
        0x00001958:    7830        0x      LDRB     r0,[r6,#0]
        0x0000195a:    286c        l(      CMP      r0,#0x6c
        0x0000195c:    d010        ..      BEQ      0x1980 ; _printf_core + 192
        0x0000195e:    dc06        ..      BGT      0x196e ; _printf_core + 174
        0x00001960:    284c        L(      CMP      r0,#0x4c
        0x00001962:    d01a        ..      BEQ      0x199a ; _printf_core + 218
        0x00001964:    2868        h(      CMP      r0,#0x68
        0x00001966:    d00e        ..      BEQ      0x1986 ; _printf_core + 198
        0x00001968:    286a        j(      CMP      r0,#0x6a
        0x0000196a:    d117        ..      BNE      0x199c ; _printf_core + 220
        0x0000196c:    e004        ..      B        0x1978 ; _printf_core + 184
        0x0000196e:    2874        t(      CMP      r0,#0x74
        0x00001970:    d013        ..      BEQ      0x199a ; _printf_core + 218
        0x00001972:    287a        z(      CMP      r0,#0x7a
        0x00001974:    d112        ..      BNE      0x199c ; _printf_core + 220
        0x00001976:    e010        ..      B        0x199a ; _printf_core + 218
        0x00001978:    2001        .       MOVS     r0,#1
        0x0000197a:    0540        @.      LSLS     r0,r0,#21
        0x0000197c:    4304        .C      ORRS     r4,r4,r0
        0x0000197e:    e00c        ..      B        0x199a ; _printf_core + 218
        0x00001980:    2101        .!      MOVS     r1,#1
        0x00001982:    0509        ..      LSLS     r1,r1,#20
        0x00001984:    e001        ..      B        0x198a ; _printf_core + 202
        0x00001986:    2103        .!      MOVS     r1,#3
        0x00001988:    0509        ..      LSLS     r1,r1,#20
        0x0000198a:    430c        .C      ORRS     r4,r4,r1
        0x0000198c:    7871        qx      LDRB     r1,[r6,#1]
        0x0000198e:    4281        .B      CMP      r1,r0
        0x00001990:    d103        ..      BNE      0x199a ; _printf_core + 218
        0x00001992:    2001        .       MOVS     r0,#1
        0x00001994:    0500        ..      LSLS     r0,r0,#20
        0x00001996:    1824        $.      ADDS     r4,r4,r0
        0x00001998:    1c76        v.      ADDS     r6,r6,#1
        0x0000199a:    1c76        v.      ADDS     r6,r6,#1
        0x0000199c:    7830        0x      LDRB     r0,[r6,#0]
        0x0000199e:    9011        ..      STR      r0,[sp,#0x44]
        0x000019a0:    2866        f(      CMP      r0,#0x66
        0x000019a2:    d00b        ..      BEQ      0x19bc ; _printf_core + 252
        0x000019a4:    dc13        ..      BGT      0x19ce ; _printf_core + 270
        0x000019a6:    2858        X(      CMP      r0,#0x58
        0x000019a8:    d07d        }.      BEQ      0x1aa6 ; _printf_core + 486
        0x000019aa:    dc09        ..      BGT      0x19c0 ; _printf_core + 256
        0x000019ac:    2800        .(      CMP      r0,#0
        0x000019ae:    d07b        {.      BEQ      0x1aa8 ; _printf_core + 488
        0x000019b0:    2845        E(      CMP      r0,#0x45
        0x000019b2:    d0f6        ..      BEQ      0x19a2 ; _printf_core + 226
        0x000019b4:    2846        F(      CMP      r0,#0x46
        0x000019b6:    d0f4        ..      BEQ      0x19a2 ; _printf_core + 226
        0x000019b8:    2847        G(      CMP      r0,#0x47
        0x000019ba:    d11a        ..      BNE      0x19f2 ; _printf_core + 306
        0x000019bc:    e1a5        ..      B        0x1d0a ; _printf_core + 1098
        0x000019be:    e018        ..      B        0x19f2 ; _printf_core + 306
        0x000019c0:    2863        c(      CMP      r0,#0x63
        0x000019c2:    d035        5.      BEQ      0x1a30 ; _printf_core + 368
        0x000019c4:    2864        d(      CMP      r0,#0x64
        0x000019c6:    d070        p.      BEQ      0x1aaa ; _printf_core + 490
        0x000019c8:    2865        e(      CMP      r0,#0x65
        0x000019ca:    d112        ..      BNE      0x19f2 ; _printf_core + 306
        0x000019cc:    e19d        ..      B        0x1d0a ; _printf_core + 1098
        0x000019ce:    2870        p(      CMP      r0,#0x70
        0x000019d0:    d06c        l.      BEQ      0x1aac ; _printf_core + 492
        0x000019d2:    dc08        ..      BGT      0x19e6 ; _printf_core + 294
        0x000019d4:    2867        g(      CMP      r0,#0x67
        0x000019d6:    d0f1        ..      BEQ      0x19bc ; _printf_core + 252
        0x000019d8:    2869        i(      CMP      r0,#0x69
        0x000019da:    d07b        {.      BEQ      0x1ad4 ; _printf_core + 532
        0x000019dc:    286e        n(      CMP      r0,#0x6e
        0x000019de:    d00d        ..      BEQ      0x19fc ; _printf_core + 316
        0x000019e0:    286f        o(      CMP      r0,#0x6f
        0x000019e2:    d106        ..      BNE      0x19f2 ; _printf_core + 306
        0x000019e4:    e0ba        ..      B        0x1b5c ; _printf_core + 668
        0x000019e6:    2873        s(      CMP      r0,#0x73
        0x000019e8:    d02e        ..      BEQ      0x1a48 ; _printf_core + 392
        0x000019ea:    2875        u(      CMP      r0,#0x75
        0x000019ec:    d071        q.      BEQ      0x1ad2 ; _printf_core + 530
        0x000019ee:    2878        x(      CMP      r0,#0x78
        0x000019f0:    d059        Y.      BEQ      0x1aa6 ; _printf_core + 486
        0x000019f2:    9a1a        ..      LDR      r2,[sp,#0x68]
        0x000019f4:    9919        ..      LDR      r1,[sp,#0x64]
        0x000019f6:    4790        .G      BLX      r2
        0x000019f8:    1c6d        m.      ADDS     r5,r5,#1
        0x000019fa:    e17e        ~.      B        0x1cfa ; _printf_core + 1082
        0x000019fc:    0260        `.      LSLS     r0,r4,#9
        0x000019fe:    0f40        @.      LSRS     r0,r0,#29
        0x00001a00:    2802        .(      CMP      r0,#2
        0x00001a02:    d009        ..      BEQ      0x1a18 ; _printf_core + 344
        0x00001a04:    2803        .(      CMP      r0,#3
        0x00001a06:    d00d        ..      BEQ      0x1a24 ; _printf_core + 356
        0x00001a08:    2804        .(      CMP      r0,#4
        0x00001a0a:    9818        ..      LDR      r0,[sp,#0x60]
        0x00001a0c:    6801        .h      LDR      r1,[r0,#0]
        0x00001a0e:    d00d        ..      BEQ      0x1a2c ; _printf_core + 364
        0x00001a10:    600d        .`      STR      r5,[r1,#0]
        0x00001a12:    1d00        ..      ADDS     r0,r0,#4
        0x00001a14:    9018        ..      STR      r0,[sp,#0x60]
        0x00001a16:    e170        p.      B        0x1cfa ; _printf_core + 1082
        0x00001a18:    9818        ..      LDR      r0,[sp,#0x60]
        0x00001a1a:    17ea        ..      ASRS     r2,r5,#31
        0x00001a1c:    6801        .h      LDR      r1,[r0,#0]
        0x00001a1e:    600d        .`      STR      r5,[r1,#0]
        0x00001a20:    604a        J`      STR      r2,[r1,#4]
        0x00001a22:    e7f6        ..      B        0x1a12 ; _printf_core + 338
        0x00001a24:    9818        ..      LDR      r0,[sp,#0x60]
        0x00001a26:    6801        .h      LDR      r1,[r0,#0]
        0x00001a28:    800d        ..      STRH     r5,[r1,#0]
        0x00001a2a:    e7f2        ..      B        0x1a12 ; _printf_core + 338
        0x00001a2c:    700d        .p      STRB     r5,[r1,#0]
        0x00001a2e:    e7f0        ..      B        0x1a12 ; _printf_core + 338
        0x00001a30:    9818        ..      LDR      r0,[sp,#0x60]
        0x00001a32:    466a        jF      MOV      r2,sp
        0x00001a34:    7801        .x      LDRB     r1,[r0,#0]
        0x00001a36:    7211        .r      STRB     r1,[r2,#8]
        0x00001a38:    1d00        ..      ADDS     r0,r0,#4
        0x00001a3a:    9018        ..      STR      r0,[sp,#0x60]
        0x00001a3c:    2000        .       MOVS     r0,#0
        0x00001a3e:    7250        Pr      STRB     r0,[r2,#9]
        0x00001a40:    a802        ..      ADD      r0,sp,#8
        0x00001a42:    9000        ..      STR      r0,[sp,#0]
        0x00001a44:    2001        .       MOVS     r0,#1
        0x00001a46:    e005        ..      B        0x1a54 ; _printf_core + 404
        0x00001a48:    9818        ..      LDR      r0,[sp,#0x60]
        0x00001a4a:    c802        ..      LDM      r0!,{r1}
        0x00001a4c:    9018        ..      STR      r0,[sp,#0x60]
        0x00001a4e:    2000        .       MOVS     r0,#0
        0x00001a50:    9100        ..      STR      r1,[sp,#0]
        0x00001a52:    43c0        .C      MVNS     r0,r0
        0x00001a54:    0761        a.      LSLS     r1,r4,#29
        0x00001a56:    d50d        ..      BPL      0x1a74 ; _printf_core + 436
        0x00001a58:    2100        .!      MOVS     r1,#0
        0x00001a5a:    e001        ..      B        0x1a60 ; _printf_core + 416
        0x00001a5c:    9901        ..      LDR      r1,[sp,#4]
        0x00001a5e:    1c49        I.      ADDS     r1,r1,#1
        0x00001a60:    9101        ..      STR      r1,[sp,#4]
        0x00001a62:    42b9        .B      CMP      r1,r7
        0x00001a64:    da12        ..      BGE      0x1a8c ; _printf_core + 460
        0x00001a66:    4281        .B      CMP      r1,r0
        0x00001a68:    dbf8        ..      BLT      0x1a5c ; _printf_core + 412
        0x00001a6a:    9a00        ..      LDR      r2,[sp,#0]
        0x00001a6c:    5c51        Q\      LDRB     r1,[r2,r1]
        0x00001a6e:    2900        .)      CMP      r1,#0
        0x00001a70:    d1f4        ..      BNE      0x1a5c ; _printf_core + 412
        0x00001a72:    e00b        ..      B        0x1a8c ; _printf_core + 460
        0x00001a74:    2100        .!      MOVS     r1,#0
        0x00001a76:    e001        ..      B        0x1a7c ; _printf_core + 444
        0x00001a78:    9901        ..      LDR      r1,[sp,#4]
        0x00001a7a:    1c49        I.      ADDS     r1,r1,#1
        0x00001a7c:    9101        ..      STR      r1,[sp,#4]
        0x00001a7e:    4281        .B      CMP      r1,r0
        0x00001a80:    dbfa        ..      BLT      0x1a78 ; _printf_core + 440
        0x00001a82:    9a01        ..      LDR      r2,[sp,#4]
        0x00001a84:    9900        ..      LDR      r1,[sp,#0]
        0x00001a86:    5c89        .\      LDRB     r1,[r1,r2]
        0x00001a88:    2900        .)      CMP      r1,#0
        0x00001a8a:    d1f5        ..      BNE      0x1a78 ; _printf_core + 440
        0x00001a8c:    9901        ..      LDR      r1,[sp,#4]
        0x00001a8e:    9804        ..      LDR      r0,[sp,#0x10]
        0x00001a90:    9b1a        ..      LDR      r3,[sp,#0x68]
        0x00001a92:    1a47        G.      SUBS     r7,r0,r1
        0x00001a94:    4621        !F      MOV      r1,r4
        0x00001a96:    4638        8F      MOV      r0,r7
        0x00001a98:    9a19        ..      LDR      r2,[sp,#0x64]
        0x00001a9a:    f000fa97    ....    BL       _printf_pre_padding ; 0x1fcc
        0x00001a9e:    9901        ..      LDR      r1,[sp,#4]
        0x00001aa0:    1940        @.      ADDS     r0,r0,r5
        0x00001aa2:    1845        E.      ADDS     r5,r0,r1
        0x00001aa4:    e00b        ..      B        0x1abe ; _printf_core + 510
        0x00001aa6:    e04f        O.      B        0x1b48 ; _printf_core + 648
        0x00001aa8:    e12c        ,.      B        0x1d04 ; _printf_core + 1092
        0x00001aaa:    e013        ..      B        0x1ad4 ; _printf_core + 532
        0x00001aac:    e04e        N.      B        0x1b4c ; _printf_core + 652
        0x00001aae:    9800        ..      LDR      r0,[sp,#0]
        0x00001ab0:    9900        ..      LDR      r1,[sp,#0]
        0x00001ab2:    7800        .x      LDRB     r0,[r0,#0]
        0x00001ab4:    1c49        I.      ADDS     r1,r1,#1
        0x00001ab6:    9100        ..      STR      r1,[sp,#0]
        0x00001ab8:    9a1a        ..      LDR      r2,[sp,#0x68]
        0x00001aba:    9919        ..      LDR      r1,[sp,#0x64]
        0x00001abc:    4790        .G      BLX      r2
        0x00001abe:    9801        ..      LDR      r0,[sp,#4]
        0x00001ac0:    1e40        @.      SUBS     r0,r0,#1
        0x00001ac2:    9001        ..      STR      r0,[sp,#4]
        0x00001ac4:    1c40        @.      ADDS     r0,r0,#1
        0x00001ac6:    d1f2        ..      BNE      0x1aae ; _printf_core + 494
        0x00001ac8:    4621        !F      MOV      r1,r4
        0x00001aca:    4638        8F      MOV      r0,r7
        0x00001acc:    9b1a        ..      LDR      r3,[sp,#0x68]
        0x00001ace:    9a19        ..      LDR      r2,[sp,#0x64]
        0x00001ad0:    e110        ..      B        0x1cf4 ; _printf_core + 1076
        0x00001ad2:    e037        7.      B        0x1b44 ; _printf_core + 644
        0x00001ad4:    200a        .       MOVS     r0,#0xa
        0x00001ad6:    2100        .!      MOVS     r1,#0
        0x00001ad8:    9000        ..      STR      r0,[sp,#0]
        0x00001ada:    9101        ..      STR      r1,[sp,#4]
        0x00001adc:    0260        `.      LSLS     r0,r4,#9
        0x00001ade:    0f41        A.      LSRS     r1,r0,#29
        0x00001ae0:    2902        .)      CMP      r1,#2
        0x00001ae2:    d007        ..      BEQ      0x1af4 ; _printf_core + 564
        0x00001ae4:    9a18        ..      LDR      r2,[sp,#0x60]
        0x00001ae6:    ca01        ..      LDM      r2!,{r0}
        0x00001ae8:    9218        ..      STR      r2,[sp,#0x60]
        0x00001aea:    17c2        ..      ASRS     r2,r0,#31
        0x00001aec:    4694        .F      MOV      r12,r2
        0x00001aee:    2903        .)      CMP      r1,#3
        0x00001af0:    d008        ..      BEQ      0x1b04 ; _printf_core + 580
        0x00001af2:    e00a        ..      B        0x1b0a ; _printf_core + 586
        0x00001af4:    9818        ..      LDR      r0,[sp,#0x60]
        0x00001af6:    1dc0        ..      ADDS     r0,r0,#7
        0x00001af8:    08c1        ..      LSRS     r1,r0,#3
        0x00001afa:    00c9        ..      LSLS     r1,r1,#3
        0x00001afc:    c905        ..      LDM      r1!,{r0,r2}
        0x00001afe:    9118        ..      STR      r1,[sp,#0x60]
        0x00001b00:    4694        .F      MOV      r12,r2
        0x00001b02:    e007        ..      B        0x1b14 ; _printf_core + 596
        0x00001b04:    b200        ..      SXTH     r0,r0
        0x00001b06:    17c2        ..      ASRS     r2,r0,#31
        0x00001b08:    4694        .F      MOV      r12,r2
        0x00001b0a:    2904        .)      CMP      r1,#4
        0x00001b0c:    d102        ..      BNE      0x1b14 ; _printf_core + 596
        0x00001b0e:    b240        @.      SXTB     r0,r0
        0x00001b10:    17c1        ..      ASRS     r1,r0,#31
        0x00001b12:    468c        .F      MOV      r12,r1
        0x00001b14:    2200        ."      MOVS     r2,#0
        0x00001b16:    4661        aF      MOV      r1,r12
        0x00001b18:    4594        .E      CMP      r12,r2
        0x00001b1a:    da06        ..      BGE      0x1b2a ; _printf_core + 618
        0x00001b1c:    460a        .F      MOV      r2,r1
        0x00001b1e:    2100        .!      MOVS     r1,#0
        0x00001b20:    4240        @B      RSBS     r0,r0,#0
        0x00001b22:    4191        .A      SBCS     r1,r1,r2
        0x00001b24:    468c        .F      MOV      r12,r1
        0x00001b26:    212d        -!      MOVS     r1,#0x2d
        0x00001b28:    e002        ..      B        0x1b30 ; _printf_core + 624
        0x00001b2a:    0521        !.      LSLS     r1,r4,#20
        0x00001b2c:    d504        ..      BPL      0x1b38 ; _printf_core + 632
        0x00001b2e:    212b        +!      MOVS     r1,#0x2b
        0x00001b30:    466a        jF      MOV      r2,sp
        0x00001b32:    7311        .s      STRB     r1,[r2,#0xc]
        0x00001b34:    2101        .!      MOVS     r1,#1
        0x00001b36:    e003        ..      B        0x1b40 ; _printf_core + 640
        0x00001b38:    07e1        ..      LSLS     r1,r4,#31
        0x00001b3a:    d001        ..      BEQ      0x1b40 ; _printf_core + 640
        0x00001b3c:    2120         !      MOVS     r1,#0x20
        0x00001b3e:    e7f7        ..      B        0x1b30 ; _printf_core + 624
        0x00001b40:    9102        ..      STR      r1,[sp,#8]
        0x00001b42:    e055        U.      B        0x1bf0 ; _printf_core + 816
        0x00001b44:    200a        .       MOVS     r0,#0xa
        0x00001b46:    e00a        ..      B        0x1b5e ; _printf_core + 670
        0x00001b48:    2010        .       MOVS     r0,#0x10
        0x00001b4a:    e008        ..      B        0x1b5e ; _printf_core + 670
        0x00001b4c:    2010        .       MOVS     r0,#0x10
        0x00001b4e:    9000        ..      STR      r0,[sp,#0]
        0x00001b50:    2100        .!      MOVS     r1,#0
        0x00001b52:    2004        .       MOVS     r0,#4
        0x00001b54:    4304        .C      ORRS     r4,r4,r0
        0x00001b56:    9101        ..      STR      r1,[sp,#4]
        0x00001b58:    2708        .'      MOVS     r7,#8
        0x00001b5a:    e003        ..      B        0x1b64 ; _printf_core + 676
        0x00001b5c:    2008        .       MOVS     r0,#8
        0x00001b5e:    2100        .!      MOVS     r1,#0
        0x00001b60:    9101        ..      STR      r1,[sp,#4]
        0x00001b62:    9000        ..      STR      r0,[sp,#0]
        0x00001b64:    0260        `.      LSLS     r0,r4,#9
        0x00001b66:    0f41        A.      LSRS     r1,r0,#29
        0x00001b68:    2902        .)      CMP      r1,#2
        0x00001b6a:    d007        ..      BEQ      0x1b7c ; _printf_core + 700
        0x00001b6c:    9a18        ..      LDR      r2,[sp,#0x60]
        0x00001b6e:    ca01        ..      LDM      r2!,{r0}
        0x00001b70:    9218        ..      STR      r2,[sp,#0x60]
        0x00001b72:    2200        ."      MOVS     r2,#0
        0x00001b74:    4694        .F      MOV      r12,r2
        0x00001b76:    2903        .)      CMP      r1,#3
        0x00001b78:    d008        ..      BEQ      0x1b8c ; _printf_core + 716
        0x00001b7a:    e008        ..      B        0x1b8e ; _printf_core + 718
        0x00001b7c:    9818        ..      LDR      r0,[sp,#0x60]
        0x00001b7e:    1dc0        ..      ADDS     r0,r0,#7
        0x00001b80:    08c1        ..      LSRS     r1,r0,#3
        0x00001b82:    00c9        ..      LSLS     r1,r1,#3
        0x00001b84:    c905        ..      LDM      r1!,{r0,r2}
        0x00001b86:    9118        ..      STR      r1,[sp,#0x60]
        0x00001b88:    4694        .F      MOV      r12,r2
        0x00001b8a:    e003        ..      B        0x1b94 ; _printf_core + 724
        0x00001b8c:    b280        ..      UXTH     r0,r0
        0x00001b8e:    2904        .)      CMP      r1,#4
        0x00001b90:    d100        ..      BNE      0x1b94 ; _printf_core + 724
        0x00001b92:    b2c0        ..      UXTB     r0,r0
        0x00001b94:    2100        .!      MOVS     r1,#0
        0x00001b96:    9102        ..      STR      r1,[sp,#8]
        0x00001b98:    0721        !.      LSLS     r1,r4,#28
        0x00001b9a:    d529        ).      BPL      0x1bf0 ; _printf_core + 816
        0x00001b9c:    9911        ..      LDR      r1,[sp,#0x44]
        0x00001b9e:    2970        p)      CMP      r1,#0x70
        0x00001ba0:    d006        ..      BEQ      0x1bb0 ; _printf_core + 752
        0x00001ba2:    9a00        ..      LDR      r2,[sp,#0]
        0x00001ba4:    2110        .!      MOVS     r1,#0x10
        0x00001ba6:    9b01        ..      LDR      r3,[sp,#4]
        0x00001ba8:    404a        J@      EORS     r2,r2,r1
        0x00001baa:    431a        .C      ORRS     r2,r2,r3
        0x00001bac:    d005        ..      BEQ      0x1bba ; _printf_core + 762
        0x00001bae:    e00e        ..      B        0x1bce ; _printf_core + 782
        0x00001bb0:    2140        @!      MOVS     r1,#0x40
        0x00001bb2:    466a        jF      MOV      r2,sp
        0x00001bb4:    7311        .s      STRB     r1,[r2,#0xc]
        0x00001bb6:    2101        .!      MOVS     r1,#1
        0x00001bb8:    e008        ..      B        0x1bcc ; _printf_core + 780
        0x00001bba:    4661        aF      MOV      r1,r12
        0x00001bbc:    4301        .C      ORRS     r1,r1,r0
        0x00001bbe:    d006        ..      BEQ      0x1bce ; _printf_core + 782
        0x00001bc0:    2130        0!      MOVS     r1,#0x30
        0x00001bc2:    466a        jF      MOV      r2,sp
        0x00001bc4:    7311        .s      STRB     r1,[r2,#0xc]
        0x00001bc6:    9911        ..      LDR      r1,[sp,#0x44]
        0x00001bc8:    7351        Qs      STRB     r1,[r2,#0xd]
        0x00001bca:    2102        .!      MOVS     r1,#2
        0x00001bcc:    9102        ..      STR      r1,[sp,#8]
        0x00001bce:    9a00        ..      LDR      r2,[sp,#0]
        0x00001bd0:    2108        .!      MOVS     r1,#8
        0x00001bd2:    9b01        ..      LDR      r3,[sp,#4]
        0x00001bd4:    404a        J@      EORS     r2,r2,r1
        0x00001bd6:    431a        .C      ORRS     r2,r2,r3
        0x00001bd8:    d10a        ..      BNE      0x1bf0 ; _printf_core + 816
        0x00001bda:    4661        aF      MOV      r1,r12
        0x00001bdc:    4301        .C      ORRS     r1,r1,r0
        0x00001bde:    d101        ..      BNE      0x1be4 ; _printf_core + 804
        0x00001be0:    0761        a.      LSLS     r1,r4,#29
        0x00001be2:    d505        ..      BPL      0x1bf0 ; _printf_core + 816
        0x00001be4:    2130        0!      MOVS     r1,#0x30
        0x00001be6:    466a        jF      MOV      r2,sp
        0x00001be8:    7311        .s      STRB     r1,[r2,#0xc]
        0x00001bea:    2101        .!      MOVS     r1,#1
        0x00001bec:    1e7f        ..      SUBS     r7,r7,#1
        0x00001bee:    9102        ..      STR      r1,[sp,#8]
        0x00001bf0:    9911        ..      LDR      r1,[sp,#0x44]
        0x00001bf2:    2958        X)      CMP      r1,#0x58
        0x00001bf4:    d004        ..      BEQ      0x1c00 ; _printf_core + 832
        0x00001bf6:    a135        5.      ADR      r1,{pc}+0xd6 ; 0x1ccc
        0x00001bf8:    910e        ..      STR      r1,[sp,#0x38]
        0x00001bfa:    a90d        ..      ADD      r1,sp,#0x34
        0x00001bfc:    910d        ..      STR      r1,[sp,#0x34]
        0x00001bfe:    e00d        ..      B        0x1c1c ; _printf_core + 860
        0x00001c00:    a137        7.      ADR      r1,{pc}+0xe0 ; 0x1ce0
        0x00001c02:    e7f9        ..      B        0x1bf8 ; _printf_core + 824
        0x00001c04:    4661        aF      MOV      r1,r12
        0x00001c06:    9b01        ..      LDR      r3,[sp,#4]
        0x00001c08:    9a00        ..      LDR      r2,[sp,#0]
        0x00001c0a:    f7fefb5f    .._.    BL       __aeabi_uldivmod ; 0x2cc
        0x00001c0e:    9b0e        ..      LDR      r3,[sp,#0x38]
        0x00001c10:    468c        .F      MOV      r12,r1
        0x00001c12:    5c9b        .\      LDRB     r3,[r3,r2]
        0x00001c14:    9a0d        ..      LDR      r2,[sp,#0x34]
        0x00001c16:    1e52        R.      SUBS     r2,r2,#1
        0x00001c18:    920d        ..      STR      r2,[sp,#0x34]
        0x00001c1a:    7013        .p      STRB     r3,[r2,#0]
        0x00001c1c:    4661        aF      MOV      r1,r12
        0x00001c1e:    4301        .C      ORRS     r1,r1,r0
        0x00001c20:    d1f0        ..      BNE      0x1c04 ; _printf_core + 836
        0x00001c22:    980d        ..      LDR      r0,[sp,#0x34]
        0x00001c24:    a905        ..      ADD      r1,sp,#0x14
        0x00001c26:    1a08        ..      SUBS     r0,r1,r0
        0x00001c28:    3020         0      ADDS     r0,r0,#0x20
        0x00001c2a:    9001        ..      STR      r0,[sp,#4]
        0x00001c2c:    0760        `.      LSLS     r0,r4,#29
        0x00001c2e:    d503        ..      BPL      0x1c38 ; _printf_core + 888
        0x00001c30:    2001        .       MOVS     r0,#1
        0x00001c32:    0400        ..      LSLS     r0,r0,#16
        0x00001c34:    4384        .C      BICS     r4,r4,r0
        0x00001c36:    e000        ..      B        0x1c3a ; _printf_core + 890
        0x00001c38:    2701        .'      MOVS     r7,#1
        0x00001c3a:    9801        ..      LDR      r0,[sp,#4]
        0x00001c3c:    4287        .B      CMP      r7,r0
        0x00001c3e:    dd01        ..      BLE      0x1c44 ; _printf_core + 900
        0x00001c40:    1a38        8.      SUBS     r0,r7,r0
        0x00001c42:    e000        ..      B        0x1c46 ; _printf_core + 902
        0x00001c44:    2000        .       MOVS     r0,#0
        0x00001c46:    9901        ..      LDR      r1,[sp,#4]
        0x00001c48:    9000        ..      STR      r0,[sp,#0]
        0x00001c4a:    1841        A.      ADDS     r1,r0,r1
        0x00001c4c:    9802        ..      LDR      r0,[sp,#8]
        0x00001c4e:    1809        ..      ADDS     r1,r1,r0
        0x00001c50:    9804        ..      LDR      r0,[sp,#0x10]
        0x00001c52:    1a40        @.      SUBS     r0,r0,r1
        0x00001c54:    9004        ..      STR      r0,[sp,#0x10]
        0x00001c56:    03e0        ..      LSLS     r0,r4,#15
        0x00001c58:    d406        ..      BMI      0x1c68 ; _printf_core + 936
        0x00001c5a:    4621        !F      MOV      r1,r4
        0x00001c5c:    9b1a        ..      LDR      r3,[sp,#0x68]
        0x00001c5e:    9a19        ..      LDR      r2,[sp,#0x64]
        0x00001c60:    9804        ..      LDR      r0,[sp,#0x10]
        0x00001c62:    f000f9b3    ....    BL       _printf_pre_padding ; 0x1fcc
        0x00001c66:    1945        E.      ADDS     r5,r0,r5
        0x00001c68:    2700        .'      MOVS     r7,#0
        0x00001c6a:    e006        ..      B        0x1c7a ; _printf_core + 954
        0x00001c6c:    a803        ..      ADD      r0,sp,#0xc
        0x00001c6e:    9a1a        ..      LDR      r2,[sp,#0x68]
        0x00001c70:    5dc0        .]      LDRB     r0,[r0,r7]
        0x00001c72:    9919        ..      LDR      r1,[sp,#0x64]
        0x00001c74:    4790        .G      BLX      r2
        0x00001c76:    1c6d        m.      ADDS     r5,r5,#1
        0x00001c78:    1c7f        ..      ADDS     r7,r7,#1
        0x00001c7a:    9802        ..      LDR      r0,[sp,#8]
        0x00001c7c:    4287        .B      CMP      r7,r0
        0x00001c7e:    dbf5        ..      BLT      0x1c6c ; _printf_core + 940
        0x00001c80:    03e0        ..      LSLS     r0,r4,#15
        0x00001c82:    d50c        ..      BPL      0x1c9e ; _printf_core + 990
        0x00001c84:    4621        !F      MOV      r1,r4
        0x00001c86:    9b1a        ..      LDR      r3,[sp,#0x68]
        0x00001c88:    9a19        ..      LDR      r2,[sp,#0x64]
        0x00001c8a:    9804        ..      LDR      r0,[sp,#0x10]
        0x00001c8c:    f000f99e    ....    BL       _printf_pre_padding ; 0x1fcc
        0x00001c90:    1945        E.      ADDS     r5,r0,r5
        0x00001c92:    e004        ..      B        0x1c9e ; _printf_core + 990
        0x00001c94:    9a1a        ..      LDR      r2,[sp,#0x68]
        0x00001c96:    2030        0       MOVS     r0,#0x30
        0x00001c98:    9919        ..      LDR      r1,[sp,#0x64]
        0x00001c9a:    4790        .G      BLX      r2
        0x00001c9c:    1c6d        m.      ADDS     r5,r5,#1
        0x00001c9e:    9900        ..      LDR      r1,[sp,#0]
        0x00001ca0:    1e48        H.      SUBS     r0,r1,#1
        0x00001ca2:    9000        ..      STR      r0,[sp,#0]
        0x00001ca4:    2900        .)      CMP      r1,#0
        0x00001ca6:    dcf5        ..      BGT      0x1c94 ; _printf_core + 980
        0x00001ca8:    e008        ..      B        0x1cbc ; _printf_core + 1020
        0x00001caa:    980d        ..      LDR      r0,[sp,#0x34]
        0x00001cac:    990d        ..      LDR      r1,[sp,#0x34]
        0x00001cae:    7800        .x      LDRB     r0,[r0,#0]
        0x00001cb0:    1c49        I.      ADDS     r1,r1,#1
        0x00001cb2:    910d        ..      STR      r1,[sp,#0x34]
        0x00001cb4:    9a1a        ..      LDR      r2,[sp,#0x68]
        0x00001cb6:    9919        ..      LDR      r1,[sp,#0x64]
        0x00001cb8:    4790        .G      BLX      r2
        0x00001cba:    1c6d        m.      ADDS     r5,r5,#1
        0x00001cbc:    9901        ..      LDR      r1,[sp,#4]
        0x00001cbe:    1e48        H.      SUBS     r0,r1,#1
        0x00001cc0:    9001        ..      STR      r0,[sp,#4]
        0x00001cc2:    2900        .)      CMP      r1,#0
        0x00001cc4:    dcf1        ..      BGT      0x1caa ; _printf_core + 1002
        0x00001cc6:    e163        c.      B        0x1f90 ; _printf_core + 1744
    $d
        0x00001cc8:    00012809    .(..    DCD    75785
        0x00001ccc:    33323130    0123    DCD    858927408
        0x00001cd0:    37363534    4567    DCD    926299444
        0x00001cd4:    62613938    89ab    DCD    1650538808
        0x00001cd8:    66656463    cdef    DCD    1717920867
        0x00001cdc:    00000000    ....    DCD    0
        0x00001ce0:    33323130    0123    DCD    858927408
        0x00001ce4:    37363534    4567    DCD    926299444
        0x00001ce8:    42413938    89AB    DCD    1111570744
        0x00001cec:    46454443    CDEF    DCD    1178944579
        0x00001cf0:    00000000    ....    DCD    0
    $t
        0x00001cf4:    f000f95a    ..Z.    BL       _printf_post_padding ; 0x1fac
        0x00001cf8:    1945        E.      ADDS     r5,r0,r5
        0x00001cfa:    1c76        v.      ADDS     r6,r6,#1
        0x00001cfc:    7830        0x      LDRB     r0,[r6,#0]
        0x00001cfe:    2800        .(      CMP      r0,#0
        0x00001d00:    d000        ..      BEQ      0x1d04 ; _printf_core + 1092
        0x00001d02:    e5e2        ..      B        0x18ca ; _printf_core + 10
        0x00001d04:    4628        (F      MOV      r0,r5
        0x00001d06:    b01b        ..      ADD      sp,sp,#0x6c
        0x00001d08:    bdf0        ..      POP      {r4-r7,pc}
        0x00001d0a:    0760        `.      LSLS     r0,r4,#29
        0x00001d0c:    d400        ..      BMI      0x1d10 ; _printf_core + 1104
        0x00001d0e:    2706        .'      MOVS     r7,#6
        0x00001d10:    9818        ..      LDR      r0,[sp,#0x60]
        0x00001d12:    1dc0        ..      ADDS     r0,r0,#7
        0x00001d14:    08c1        ..      LSRS     r1,r0,#3
        0x00001d16:    00c9        ..      LSLS     r1,r1,#3
        0x00001d18:    6848        Hh      LDR      r0,[r1,#4]
        0x00001d1a:    680a        .h      LDR      r2,[r1,#0]
        0x00001d1c:    3108        .1      ADDS     r1,r1,#8
        0x00001d1e:    0fc3        ..      LSRS     r3,r0,#31
        0x00001d20:    07db        ..      LSLS     r3,r3,#31
        0x00001d22:    9118        ..      STR      r1,[sp,#0x60]
        0x00001d24:    0019        ..      MOVS     r1,r3
        0x00001d26:    d001        ..      BEQ      0x1d2c ; _printf_core + 1132
        0x00001d28:    a19c        ..      ADR      r1,{pc}+0x274 ; 0x1f9c
        0x00001d2a:    e008        ..      B        0x1d3e ; _printf_core + 1150
        0x00001d2c:    0521        !.      LSLS     r1,r4,#20
        0x00001d2e:    d501        ..      BPL      0x1d34 ; _printf_core + 1140
        0x00001d30:    a19b        ..      ADR      r1,{pc}+0x270 ; 0x1fa0
        0x00001d32:    e004        ..      B        0x1d3e ; _printf_core + 1150
        0x00001d34:    07e1        ..      LSLS     r1,r4,#31
        0x00001d36:    d001        ..      BEQ      0x1d3c ; _printf_core + 1148
        0x00001d38:    a19a        ..      ADR      r1,{pc}+0x26c ; 0x1fa4
        0x00001d3a:    e000        ..      B        0x1d3e ; _printf_core + 1150
        0x00001d3c:    a19a        ..      ADR      r1,{pc}+0x26c ; 0x1fa8
        0x00001d3e:    0043        C.      LSLS     r3,r0,#1
        0x00001d40:    9811        ..      LDR      r0,[sp,#0x44]
        0x00001d42:    085b        [.      LSRS     r3,r3,#1
        0x00001d44:    9110        ..      STR      r1,[sp,#0x40]
        0x00001d46:    2865        e(      CMP      r0,#0x65
        0x00001d48:    d00c        ..      BEQ      0x1d64 ; _printf_core + 1188
        0x00001d4a:    dc06        ..      BGT      0x1d5a ; _printf_core + 1178
        0x00001d4c:    2845        E(      CMP      r0,#0x45
        0x00001d4e:    d009        ..      BEQ      0x1d64 ; _printf_core + 1188
        0x00001d50:    2846        F(      CMP      r0,#0x46
        0x00001d52:    d01d        ..      BEQ      0x1d90 ; _printf_core + 1232
        0x00001d54:    2847        G(      CMP      r0,#0x47
        0x00001d56:    d141        A.      BNE      0x1ddc ; _printf_core + 1308
        0x00001d58:    e041        A.      B        0x1dde ; _printf_core + 1310
        0x00001d5a:    2866        f(      CMP      r0,#0x66
        0x00001d5c:    d018        ..      BEQ      0x1d90 ; _printf_core + 1232
        0x00001d5e:    2867        g(      CMP      r0,#0x67
        0x00001d60:    d13c        <.      BNE      0x1ddc ; _printf_core + 1308
        0x00001d62:    e03c        <.      B        0x1dde ; _printf_core + 1310
        0x00001d64:    2100        .!      MOVS     r1,#0
        0x00001d66:    2f11        ./      CMP      r7,#0x11
        0x00001d68:    db01        ..      BLT      0x1d6e ; _printf_core + 1198
        0x00001d6a:    2011        .       MOVS     r0,#0x11
        0x00001d6c:    e000        ..      B        0x1d70 ; _printf_core + 1200
        0x00001d6e:    1c78        x.      ADDS     r0,r7,#1
        0x00001d70:    9101        ..      STR      r1,[sp,#4]
        0x00001d72:    9000        ..      STR      r0,[sp,#0]
        0x00001d74:    a908        ..      ADD      r1,sp,#0x20
        0x00001d76:    a811        ..      ADD      r0,sp,#0x44
        0x00001d78:    f7fffce8    ....    BL       _fp_digits ; 0x174c
        0x00001d7c:    9913        ..      LDR      r1,[sp,#0x4c]
        0x00001d7e:    9105        ..      STR      r1,[sp,#0x14]
        0x00001d80:    2100        .!      MOVS     r1,#0
        0x00001d82:    9a11        ..      LDR      r2,[sp,#0x44]
        0x00001d84:    9215        ..      STR      r2,[sp,#0x54]
        0x00001d86:    1c7f        ..      ADDS     r7,r7,#1
        0x00001d88:    9812        ..      LDR      r0,[sp,#0x48]
        0x00001d8a:    9701        ..      STR      r7,[sp,#4]
        0x00001d8c:    9100        ..      STR      r1,[sp,#0]
        0x00001d8e:    e050        P.      B        0x1e32 ; _printf_core + 1394
        0x00001d90:    2001        .       MOVS     r0,#1
        0x00001d92:    07c0        ..      LSLS     r0,r0,#31
        0x00001d94:    9003        ..      STR      r0,[sp,#0xc]
        0x00001d96:    2001        .       MOVS     r0,#1
        0x00001d98:    9001        ..      STR      r0,[sp,#4]
        0x00001d9a:    a908        ..      ADD      r1,sp,#0x20
        0x00001d9c:    9700        ..      STR      r7,[sp,#0]
        0x00001d9e:    a811        ..      ADD      r0,sp,#0x44
        0x00001da0:    f7fffcd4    ....    BL       _fp_digits ; 0x174c
        0x00001da4:    9a13        ..      LDR      r2,[sp,#0x4c]
        0x00001da6:    9914        ..      LDR      r1,[sp,#0x50]
        0x00001da8:    9205        ..      STR      r2,[sp,#0x14]
        0x00001daa:    2200        ."      MOVS     r2,#0
        0x00001dac:    9b11        ..      LDR      r3,[sp,#0x44]
        0x00001dae:    9200        ..      STR      r2,[sp,#0]
        0x00001db0:    9812        ..      LDR      r0,[sp,#0x48]
        0x00001db2:    9315        ..      STR      r3,[sp,#0x54]
        0x00001db4:    9a05        ..      LDR      r2,[sp,#0x14]
        0x00001db6:    9201        ..      STR      r2,[sp,#4]
        0x00001db8:    2900        .)      CMP      r1,#0
        0x00001dba:    d001        ..      BEQ      0x1dc0 ; _printf_core + 1280
        0x00001dbc:    4610        .F      MOV      r0,r2
        0x00001dbe:    e002        ..      B        0x1dc6 ; _printf_core + 1286
        0x00001dc0:    1c79        y.      ADDS     r1,r7,#1
        0x00001dc2:    1840        @.      ADDS     r0,r0,r1
        0x00001dc4:    9001        ..      STR      r0,[sp,#4]
        0x00001dc6:    1a38        8.      SUBS     r0,r7,r0
        0x00001dc8:    d501        ..      BPL      0x1dce ; _printf_core + 1294
        0x00001dca:    9801        ..      LDR      r0,[sp,#4]
        0x00001dcc:    e004        ..      B        0x1dd8 ; _printf_core + 1304
        0x00001dce:    4240        @B      RSBS     r0,r0,#0
        0x00001dd0:    1e40        @.      SUBS     r0,r0,#1
        0x00001dd2:    9000        ..      STR      r0,[sp,#0]
        0x00001dd4:    1c78        x.      ADDS     r0,r7,#1
        0x00001dd6:    9001        ..      STR      r0,[sp,#4]
        0x00001dd8:    1bc0        ..      SUBS     r0,r0,r7
        0x00001dda:    9002        ..      STR      r0,[sp,#8]
        0x00001ddc:    e043        C.      B        0x1e66 ; _printf_core + 1446
        0x00001dde:    2f01        ./      CMP      r7,#1
        0x00001de0:    da00        ..      BGE      0x1de4 ; _printf_core + 1316
        0x00001de2:    2701        .'      MOVS     r7,#1
        0x00001de4:    2100        .!      MOVS     r1,#0
        0x00001de6:    2f11        ./      CMP      r7,#0x11
        0x00001de8:    dd01        ..      BLE      0x1dee ; _printf_core + 1326
        0x00001dea:    2011        .       MOVS     r0,#0x11
        0x00001dec:    e000        ..      B        0x1df0 ; _printf_core + 1328
        0x00001dee:    4638        8F      MOV      r0,r7
        0x00001df0:    9101        ..      STR      r1,[sp,#4]
        0x00001df2:    9000        ..      STR      r0,[sp,#0]
        0x00001df4:    a908        ..      ADD      r1,sp,#0x20
        0x00001df6:    a811        ..      ADD      r0,sp,#0x44
        0x00001df8:    f7fffca8    ....    BL       _fp_digits ; 0x174c
        0x00001dfc:    9913        ..      LDR      r1,[sp,#0x4c]
        0x00001dfe:    9105        ..      STR      r1,[sp,#0x14]
        0x00001e00:    9a11        ..      LDR      r2,[sp,#0x44]
        0x00001e02:    2100        .!      MOVS     r1,#0
        0x00001e04:    9812        ..      LDR      r0,[sp,#0x48]
        0x00001e06:    9215        ..      STR      r2,[sp,#0x54]
        0x00001e08:    9100        ..      STR      r1,[sp,#0]
        0x00001e0a:    9701        ..      STR      r7,[sp,#4]
        0x00001e0c:    0721        !.      LSLS     r1,r4,#28
        0x00001e0e:    d40c        ..      BMI      0x1e2a ; _printf_core + 1386
        0x00001e10:    9905        ..      LDR      r1,[sp,#0x14]
        0x00001e12:    42b9        .B      CMP      r1,r7
        0x00001e14:    db01        ..      BLT      0x1e1a ; _printf_core + 1370
        0x00001e16:    9901        ..      LDR      r1,[sp,#4]
        0x00001e18:    e000        ..      B        0x1e1c ; _printf_core + 1372
        0x00001e1a:    9101        ..      STR      r1,[sp,#4]
        0x00001e1c:    2901        .)      CMP      r1,#1
        0x00001e1e:    dd04        ..      BLE      0x1e2a ; _printf_core + 1386
        0x00001e20:    9a15        ..      LDR      r2,[sp,#0x54]
        0x00001e22:    1e49        I.      SUBS     r1,r1,#1
        0x00001e24:    5c51        Q\      LDRB     r1,[r2,r1]
        0x00001e26:    2930        0)      CMP      r1,#0x30
        0x00001e28:    d006        ..      BEQ      0x1e38 ; _printf_core + 1400
        0x00001e2a:    42b8        .B      CMP      r0,r7
        0x00001e2c:    da01        ..      BGE      0x1e32 ; _printf_core + 1394
        0x00001e2e:    1d01        ..      ADDS     r1,r0,#4
        0x00001e30:    da05        ..      BGE      0x1e3e ; _printf_core + 1406
        0x00001e32:    2101        .!      MOVS     r1,#1
        0x00001e34:    9102        ..      STR      r1,[sp,#8]
        0x00001e36:    e015        ..      B        0x1e64 ; _printf_core + 1444
        0x00001e38:    9901        ..      LDR      r1,[sp,#4]
        0x00001e3a:    1e49        I.      SUBS     r1,r1,#1
        0x00001e3c:    e7ed        ..      B        0x1e1a ; _printf_core + 1370
        0x00001e3e:    2800        .(      CMP      r0,#0
        0x00001e40:    dc05        ..      BGT      0x1e4e ; _printf_core + 1422
        0x00001e42:    9900        ..      LDR      r1,[sp,#0]
        0x00001e44:    1841        A.      ADDS     r1,r0,r1
        0x00001e46:    9100        ..      STR      r1,[sp,#0]
        0x00001e48:    9901        ..      LDR      r1,[sp,#4]
        0x00001e4a:    1a09        ..      SUBS     r1,r1,r0
        0x00001e4c:    e003        ..      B        0x1e56 ; _printf_core + 1430
        0x00001e4e:    9a01        ..      LDR      r2,[sp,#4]
        0x00001e50:    1c41        A.      ADDS     r1,r0,#1
        0x00001e52:    4291        .B      CMP      r1,r2
        0x00001e54:    dd00        ..      BLE      0x1e58 ; _printf_core + 1432
        0x00001e56:    9101        ..      STR      r1,[sp,#4]
        0x00001e58:    9900        ..      LDR      r1,[sp,#0]
        0x00001e5a:    1a40        @.      SUBS     r0,r0,r1
        0x00001e5c:    1c40        @.      ADDS     r0,r0,#1
        0x00001e5e:    9002        ..      STR      r0,[sp,#8]
        0x00001e60:    2001        .       MOVS     r0,#1
        0x00001e62:    07c0        ..      LSLS     r0,r0,#31
        0x00001e64:    9003        ..      STR      r0,[sp,#0xc]
        0x00001e66:    0720         .      LSLS     r0,r4,#28
        0x00001e68:    d406        ..      BMI      0x1e78 ; _printf_core + 1464
        0x00001e6a:    9902        ..      LDR      r1,[sp,#8]
        0x00001e6c:    9801        ..      LDR      r0,[sp,#4]
        0x00001e6e:    4281        .B      CMP      r1,r0
        0x00001e70:    db02        ..      BLT      0x1e78 ; _printf_core + 1464
        0x00001e72:    2000        .       MOVS     r0,#0
        0x00001e74:    43c0        .C      MVNS     r0,r0
        0x00001e76:    9002        ..      STR      r0,[sp,#8]
        0x00001e78:    2000        .       MOVS     r0,#0
        0x00001e7a:    4669        iF      MOV      r1,sp
        0x00001e7c:    77c8        .w      STRB     r0,[r1,#0x1f]
        0x00001e7e:    af07        ..      ADD      r7,sp,#0x1c
        0x00001e80:    2101        .!      MOVS     r1,#1
        0x00001e82:    9803        ..      LDR      r0,[sp,#0xc]
        0x00001e84:    3703        .7      ADDS     r7,#3
        0x00001e86:    07c9        ..      LSLS     r1,r1,#31
        0x00001e88:    4288        .B      CMP      r0,r1
        0x00001e8a:    d024        $.      BEQ      0x1ed6 ; _printf_core + 1558
        0x00001e8c:    2002        .       MOVS     r0,#2
        0x00001e8e:    9011        ..      STR      r0,[sp,#0x44]
        0x00001e90:    202b        +       MOVS     r0,#0x2b
        0x00001e92:    9012        ..      STR      r0,[sp,#0x48]
        0x00001e94:    9803        ..      LDR      r0,[sp,#0xc]
        0x00001e96:    2800        .(      CMP      r0,#0
        0x00001e98:    da0c        ..      BGE      0x1eb4 ; _printf_core + 1524
        0x00001e9a:    4240        @B      RSBS     r0,r0,#0
        0x00001e9c:    9003        ..      STR      r0,[sp,#0xc]
        0x00001e9e:    202d        -       MOVS     r0,#0x2d
        0x00001ea0:    9012        ..      STR      r0,[sp,#0x48]
        0x00001ea2:    e007        ..      B        0x1eb4 ; _printf_core + 1524
        0x00001ea4:    210a        .!      MOVS     r1,#0xa
        0x00001ea6:    9803        ..      LDR      r0,[sp,#0xc]
        0x00001ea8:    f7fef950    ..P.    BL       __aeabi_uidiv ; 0x14c
        0x00001eac:    3130        01      ADDS     r1,r1,#0x30
        0x00001eae:    1e7f        ..      SUBS     r7,r7,#1
        0x00001eb0:    9003        ..      STR      r0,[sp,#0xc]
        0x00001eb2:    7039        9p      STRB     r1,[r7,#0]
        0x00001eb4:    9911        ..      LDR      r1,[sp,#0x44]
        0x00001eb6:    1e48        H.      SUBS     r0,r1,#1
        0x00001eb8:    9011        ..      STR      r0,[sp,#0x44]
        0x00001eba:    2900        .)      CMP      r1,#0
        0x00001ebc:    dcf2        ..      BGT      0x1ea4 ; _printf_core + 1508
        0x00001ebe:    9803        ..      LDR      r0,[sp,#0xc]
        0x00001ec0:    2800        .(      CMP      r0,#0
        0x00001ec2:    d1ef        ..      BNE      0x1ea4 ; _printf_core + 1508
        0x00001ec4:    1e79        y.      SUBS     r1,r7,#1
        0x00001ec6:    9812        ..      LDR      r0,[sp,#0x48]
        0x00001ec8:    7008        .p      STRB     r0,[r1,#0]
        0x00001eca:    7830        0x      LDRB     r0,[r6,#0]
        0x00001ecc:    2120         !      MOVS     r1,#0x20
        0x00001ece:    4008        .@      ANDS     r0,r0,r1
        0x00001ed0:    3045        E0      ADDS     r0,r0,#0x45
        0x00001ed2:    1ebf        ..      SUBS     r7,r7,#2
        0x00001ed4:    7038        8p      STRB     r0,[r7,#0]
        0x00001ed6:    a806        ..      ADD      r0,sp,#0x18
        0x00001ed8:    1bc0        ..      SUBS     r0,r0,r7
        0x00001eda:    1dc0        ..      ADDS     r0,r0,#7
        0x00001edc:    9003        ..      STR      r0,[sp,#0xc]
        0x00001ede:    9810        ..      LDR      r0,[sp,#0x40]
        0x00001ee0:    7800        .x      LDRB     r0,[r0,#0]
        0x00001ee2:    2800        .(      CMP      r0,#0
        0x00001ee4:    d000        ..      BEQ      0x1ee8 ; _printf_core + 1576
        0x00001ee6:    2001        .       MOVS     r0,#1
        0x00001ee8:    9901        ..      LDR      r1,[sp,#4]
        0x00001eea:    1841        A.      ADDS     r1,r0,r1
        0x00001eec:    9802        ..      LDR      r0,[sp,#8]
        0x00001eee:    17c0        ..      ASRS     r0,r0,#31
        0x00001ef0:    1809        ..      ADDS     r1,r1,r0
        0x00001ef2:    9803        ..      LDR      r0,[sp,#0xc]
        0x00001ef4:    1809        ..      ADDS     r1,r1,r0
        0x00001ef6:    9804        ..      LDR      r0,[sp,#0x10]
        0x00001ef8:    1a40        @.      SUBS     r0,r0,r1
        0x00001efa:    1e40        @.      SUBS     r0,r0,#1
        0x00001efc:    9004        ..      STR      r0,[sp,#0x10]
        0x00001efe:    03e0        ..      LSLS     r0,r4,#15
        0x00001f00:    d406        ..      BMI      0x1f10 ; _printf_core + 1616
        0x00001f02:    4621        !F      MOV      r1,r4
        0x00001f04:    9b1a        ..      LDR      r3,[sp,#0x68]
        0x00001f06:    9a19        ..      LDR      r2,[sp,#0x64]
        0x00001f08:    9804        ..      LDR      r0,[sp,#0x10]
        0x00001f0a:    f000f85f    .._.    BL       _printf_pre_padding ; 0x1fcc
        0x00001f0e:    1945        E.      ADDS     r5,r0,r5
        0x00001f10:    9810        ..      LDR      r0,[sp,#0x40]
        0x00001f12:    7800        .x      LDRB     r0,[r0,#0]
        0x00001f14:    2800        .(      CMP      r0,#0
        0x00001f16:    d003        ..      BEQ      0x1f20 ; _printf_core + 1632
        0x00001f18:    9a1a        ..      LDR      r2,[sp,#0x68]
        0x00001f1a:    9919        ..      LDR      r1,[sp,#0x64]
        0x00001f1c:    4790        .G      BLX      r2
        0x00001f1e:    1c6d        m.      ADDS     r5,r5,#1
        0x00001f20:    03e0        ..      LSLS     r0,r4,#15
        0x00001f22:    d524        $.      BPL      0x1f6e ; _printf_core + 1710
        0x00001f24:    4621        !F      MOV      r1,r4
        0x00001f26:    9b1a        ..      LDR      r3,[sp,#0x68]
        0x00001f28:    9a19        ..      LDR      r2,[sp,#0x64]
        0x00001f2a:    9804        ..      LDR      r0,[sp,#0x10]
        0x00001f2c:    f000f84e    ..N.    BL       _printf_pre_padding ; 0x1fcc
        0x00001f30:    1945        E.      ADDS     r5,r0,r5
        0x00001f32:    e01c        ..      B        0x1f6e ; _printf_core + 1710
        0x00001f34:    9800        ..      LDR      r0,[sp,#0]
        0x00001f36:    2800        .(      CMP      r0,#0
        0x00001f38:    db07        ..      BLT      0x1f4a ; _printf_core + 1674
        0x00001f3a:    9900        ..      LDR      r1,[sp,#0]
        0x00001f3c:    9805        ..      LDR      r0,[sp,#0x14]
        0x00001f3e:    4288        .B      CMP      r0,r1
        0x00001f40:    dd03        ..      BLE      0x1f4a ; _printf_core + 1674
        0x00001f42:    9815        ..      LDR      r0,[sp,#0x54]
        0x00001f44:    5c40        @\      LDRB     r0,[r0,r1]
        0x00001f46:    9919        ..      LDR      r1,[sp,#0x64]
        0x00001f48:    e001        ..      B        0x1f4e ; _printf_core + 1678
        0x00001f4a:    9919        ..      LDR      r1,[sp,#0x64]
        0x00001f4c:    2030        0       MOVS     r0,#0x30
        0x00001f4e:    9a1a        ..      LDR      r2,[sp,#0x68]
        0x00001f50:    4790        .G      BLX      r2
        0x00001f52:    9800        ..      LDR      r0,[sp,#0]
        0x00001f54:    1c6d        m.      ADDS     r5,r5,#1
        0x00001f56:    1c40        @.      ADDS     r0,r0,#1
        0x00001f58:    9000        ..      STR      r0,[sp,#0]
        0x00001f5a:    9802        ..      LDR      r0,[sp,#8]
        0x00001f5c:    1e40        @.      SUBS     r0,r0,#1
        0x00001f5e:    9002        ..      STR      r0,[sp,#8]
        0x00001f60:    2800        .(      CMP      r0,#0
        0x00001f62:    d104        ..      BNE      0x1f6e ; _printf_core + 1710
        0x00001f64:    9a1a        ..      LDR      r2,[sp,#0x68]
        0x00001f66:    202e        .       MOVS     r0,#0x2e
        0x00001f68:    9919        ..      LDR      r1,[sp,#0x64]
        0x00001f6a:    4790        .G      BLX      r2
        0x00001f6c:    1c6d        m.      ADDS     r5,r5,#1
        0x00001f6e:    9901        ..      LDR      r1,[sp,#4]
        0x00001f70:    1e48        H.      SUBS     r0,r1,#1
        0x00001f72:    9001        ..      STR      r0,[sp,#4]
        0x00001f74:    2900        .)      CMP      r1,#0
        0x00001f76:    dcdd        ..      BGT      0x1f34 ; _printf_core + 1652
        0x00001f78:    e005        ..      B        0x1f86 ; _printf_core + 1734
        0x00001f7a:    7838        8x      LDRB     r0,[r7,#0]
        0x00001f7c:    9a1a        ..      LDR      r2,[sp,#0x68]
        0x00001f7e:    1c7f        ..      ADDS     r7,r7,#1
        0x00001f80:    9919        ..      LDR      r1,[sp,#0x64]
        0x00001f82:    4790        .G      BLX      r2
        0x00001f84:    1c6d        m.      ADDS     r5,r5,#1
        0x00001f86:    9903        ..      LDR      r1,[sp,#0xc]
        0x00001f88:    1e48        H.      SUBS     r0,r1,#1
        0x00001f8a:    9003        ..      STR      r0,[sp,#0xc]
        0x00001f8c:    2900        .)      CMP      r1,#0
        0x00001f8e:    dcf4        ..      BGT      0x1f7a ; _printf_core + 1722
        0x00001f90:    4621        !F      MOV      r1,r4
        0x00001f92:    9b1a        ..      LDR      r3,[sp,#0x68]
        0x00001f94:    9a19        ..      LDR      r2,[sp,#0x64]
        0x00001f96:    9804        ..      LDR      r0,[sp,#0x10]
        0x00001f98:    e6ac        ..      B        0x1cf4 ; _printf_core + 1076
    $d
        0x00001f9a:    0000        ..      DCW    0
        0x00001f9c:    0000002d    -...    DCD    45
        0x00001fa0:    0000002b    +...    DCD    43
        0x00001fa4:    00000020     ...    DCD    32
        0x00001fa8:    00000000    ....    DCD    0
    $t
    i._printf_post_padding
    _printf_post_padding
        0x00001fac:    b5f8        ..      PUSH     {r3-r7,lr}
        0x00001fae:    4604        .F      MOV      r4,r0
        0x00001fb0:    2500        .%      MOVS     r5,#0
        0x00001fb2:    461e        .F      MOV      r6,r3
        0x00001fb4:    4617        .F      MOV      r7,r2
        0x00001fb6:    0488        ..      LSLS     r0,r1,#18
        0x00001fb8:    d404        ..      BMI      0x1fc4 ; _printf_post_padding + 24
        0x00001fba:    e005        ..      B        0x1fc8 ; _printf_post_padding + 28
        0x00001fbc:    4639        9F      MOV      r1,r7
        0x00001fbe:    2020                MOVS     r0,#0x20
        0x00001fc0:    47b0        .G      BLX      r6
        0x00001fc2:    1c6d        m.      ADDS     r5,r5,#1
        0x00001fc4:    1e64        d.      SUBS     r4,r4,#1
        0x00001fc6:    d5f9        ..      BPL      0x1fbc ; _printf_post_padding + 16
        0x00001fc8:    4628        (F      MOV      r0,r5
        0x00001fca:    bdf8        ..      POP      {r3-r7,pc}
    i._printf_pre_padding
    _printf_pre_padding
        0x00001fcc:    b5ff        ..      PUSH     {r0-r7,lr}
        0x00001fce:    4604        .F      MOV      r4,r0
        0x00001fd0:    2500        .%      MOVS     r5,#0
        0x00001fd2:    b081        ..      SUB      sp,sp,#4
        0x00001fd4:    461e        .F      MOV      r6,r3
        0x00001fd6:    03c8        ..      LSLS     r0,r1,#15
        0x00001fd8:    d501        ..      BPL      0x1fde ; _printf_pre_padding + 18
        0x00001fda:    2730        0'      MOVS     r7,#0x30
        0x00001fdc:    e000        ..      B        0x1fe0 ; _printf_pre_padding + 20
        0x00001fde:    2720         '      MOVS     r7,#0x20
        0x00001fe0:    0488        ..      LSLS     r0,r1,#18
        0x00001fe2:    d504        ..      BPL      0x1fee ; _printf_pre_padding + 34
        0x00001fe4:    e005        ..      B        0x1ff2 ; _printf_pre_padding + 38
        0x00001fe6:    4638        8F      MOV      r0,r7
        0x00001fe8:    9903        ..      LDR      r1,[sp,#0xc]
        0x00001fea:    47b0        .G      BLX      r6
        0x00001fec:    1c6d        m.      ADDS     r5,r5,#1
        0x00001fee:    1e64        d.      SUBS     r4,r4,#1
        0x00001ff0:    d5f9        ..      BPL      0x1fe6 ; _printf_pre_padding + 26
        0x00001ff2:    4628        (F      MOV      r0,r5
        0x00001ff4:    b005        ..      ADD      sp,sp,#0x14
        0x00001ff6:    bdf0        ..      POP      {r4-r7,pc}
    i.fputc
    fputc
        0x00001ff8:    b510        ..      PUSH     {r4,lr}
        0x00001ffa:    4604        .F      MOV      r4,r0
        0x00001ffc:    f7fff872    ..r.    BL       SendChar ; 0x10e4
        0x00002000:    4620         F      MOV      r0,r4
        0x00002002:    bd10        ..      POP      {r4,pc}
    i.main
    main
        0x00002004:    f7fefff4    ....    BL       SYS_Init ; 0xff0
        0x00002008:    f7fff9f8    ....    BL       UART0_Init ; 0x13fc
        0x0000200c:    f7fefcae    ....    BL       GPIO_Init ; 0x96c
        0x00002010:    f7fff8de    ....    BL       TIMER3_Init ; 0x11d0
        0x00002014:    f7feff08    ....    BL       PWM0_Init ; 0xe28
        0x00002018:    f7fefe22    ..".    BL       PDMA_TimerCapture_Init ; 0xc60
        0x0000201c:    e7fe        ..      B        0x201c ; main + 24
        0x0000201e:    0000        ..      MOVS     r0,r0
    i.stackDump
    stackDump
        0x00002020:    b510        ..      PUSH     {r4,lr}
        0x00002022:    4604        .F      MOV      r4,r0
        0x00002024:    6801        .h      LDR      r1,[r0,#0]
        0x00002026:    a010        ..      ADR      r0,{pc}+0x42 ; 0x2068
        0x00002028:    f7fffb4c    ..L.    BL       __0printf ; 0x16c4
        0x0000202c:    a011        ..      ADR      r0,{pc}+0x48 ; 0x2074
        0x0000202e:    6861        ah      LDR      r1,[r4,#4]
        0x00002030:    f7fffb48    ..H.    BL       __0printf ; 0x16c4
        0x00002034:    a012        ..      ADR      r0,{pc}+0x4c ; 0x2080
        0x00002036:    68a1        .h      LDR      r1,[r4,#8]
        0x00002038:    f7fffb44    ..D.    BL       __0printf ; 0x16c4
        0x0000203c:    a013        ..      ADR      r0,{pc}+0x50 ; 0x208c
        0x0000203e:    68e1        .h      LDR      r1,[r4,#0xc]
        0x00002040:    f7fffb40    ..@.    BL       __0printf ; 0x16c4
        0x00002044:    a014        ..      ADR      r0,{pc}+0x54 ; 0x2098
        0x00002046:    6921        !i      LDR      r1,[r4,#0x10]
        0x00002048:    f7fffb3c    ..<.    BL       __0printf ; 0x16c4
        0x0000204c:    a015        ..      ADR      r0,{pc}+0x58 ; 0x20a4
        0x0000204e:    6961        ai      LDR      r1,[r4,#0x14]
        0x00002050:    f7fffb38    ..8.    BL       __0printf ; 0x16c4
        0x00002054:    a016        ..      ADR      r0,{pc}+0x5c ; 0x20b0
        0x00002056:    69a1        .i      LDR      r1,[r4,#0x18]
        0x00002058:    f7fffb34    ..4.    BL       __0printf ; 0x16c4
        0x0000205c:    a017        ..      ADR      r0,{pc}+0x60 ; 0x20bc
        0x0000205e:    69e1        .i      LDR      r1,[r4,#0x1c]
        0x00002060:    f7fffb30    ..0.    BL       __0printf ; 0x16c4
        0x00002064:    bd10        ..      POP      {r4,pc}
    $d
        0x00002066:    0000        ..      DCW    0
        0x00002068:    20203072    r0      DCD    538980466
        0x0000206c:    7830203d    = 0x    DCD    2016419901
        0x00002070:    000a7825    %x..    DCD    686117
        0x00002074:    20203172    r1      DCD    538980722
        0x00002078:    7830203d    = 0x    DCD    2016419901
        0x0000207c:    000a7825    %x..    DCD    686117
        0x00002080:    20203272    r2      DCD    538980978
        0x00002084:    7830203d    = 0x    DCD    2016419901
        0x00002088:    000a7825    %x..    DCD    686117
        0x0000208c:    20203372    r3      DCD    538981234
        0x00002090:    7830203d    = 0x    DCD    2016419901
        0x00002094:    000a7825    %x..    DCD    686117
        0x00002098:    20323172    r12     DCD    540160370
        0x0000209c:    7830203d    = 0x    DCD    2016419901
        0x000020a0:    000a7825    %x..    DCD    686117
        0x000020a4:    2020726c    lr      DCD    538997356
        0x000020a8:    7830203d    = 0x    DCD    2016419901
        0x000020ac:    000a7825    %x..    DCD    686117
        0x000020b0:    20206370    pc      DCD    538993520
        0x000020b4:    7830203d    = 0x    DCD    2016419901
        0x000020b8:    000a7825    %x..    DCD    686117
        0x000020bc:    20727370    psr     DCD    544371568
        0x000020c0:    7830203d    = 0x    DCD    2016419901
        0x000020c4:    000a7825    %x..    DCD    686117
    $d.realdata
    .constdata
    gau32ClkSrcTbl
        0x000020c8:    01e84800    .H..    DCD    32000000
        0x000020cc:    00008000    ....    DCD    32768
        0x000020d0:    05b8d800    ....    DCD    96000000
        0x000020d4:    00009600    ....    DCD    38400
        0x000020d8:    02dc6c00    .l..    DCD    48000000
        0x000020dc:    00000000    ....    DCD    0
        0x000020e0:    00000000    ....    DCD    0
        0x000020e4:    02dc6c00    .l..    DCD    48000000
    .constdata
        0x000020e8:    01e84800    .H..    DCD    32000000
        0x000020ec:    00000000    ....    DCD    0
        0x000020f0:    00008000    ....    DCD    32768
        0x000020f4:    02dc6c00    .l..    DCD    48000000
        0x000020f8:    00000000    ....    DCD    0
        0x000020fc:    00009600    ....    DCD    38400
        0x00002100:    01e84800    .H..    DCD    32000000
        0x00002104:    00000000    ....    DCD    0
        0x00002108:    00008000    ....    DCD    32768
        0x0000210c:    02dc6c00    .l..    DCD    48000000
        0x00002110:    00000000    ....    DCD    0
        0x00002114:    00009600    ....    DCD    38400
        0x00002118:    01e84800    .H..    DCD    32000000
        0x0000211c:    00000000    ....    DCD    0
        0x00002120:    00008000    ....    DCD    32768
        0x00002124:    02dc6c00    .l..    DCD    48000000
        0x00002128:    00000000    ....    DCD    0
        0x0000212c:    00009600    ....    DCD    38400
    .constdata
        0x00002130:    00000000    ....    DCD    0
        0x00002134:    00000004    ....    DCD    4
        0x00002138:    00000008    ....    DCD    8
        0x0000213c:    0000000c    ....    DCD    12
        0x00002140:    00000000    ....    DCD    0
        0x00002144:    00000000    ....    DCD    0
        0x00002148:    00000000    ....    DCD    0
        0x0000214c:    00000010    ....    DCD    16
        0x00002150:    00000000    ....    DCD    0
        0x00002154:    00000004    ....    DCD    4
        0x00002158:    00000008    ....    DCD    8
        0x0000215c:    00000000    ....    DCD    0
        0x00002160:    00000004    ....    DCD    4
        0x00002164:    00000008    ....    DCD    8
    .constdata
        0x00002168:    01e84800    .H..    DCD    32000000
        0x0000216c:    00008000    ....    DCD    32768
        0x00002170:    00000000    ....    DCD    0
        0x00002174:    00000000    ....    DCD    0
        0x00002178:    00000000    ....    DCD    0
        0x0000217c:    00009600    ....    DCD    38400
        0x00002180:    00000000    ....    DCD    0
        0x00002184:    02dc6c00    .l..    DCD    48000000
    Region$$Table$$Base
        0x00002188:    000021a8    .!..    DCD    8616
        0x0000218c:    20000000    ...     DCD    536870912
        0x00002190:    00000028    (...    DCD    40
        0x00002194:    0000172c    ,...    DCD    5932
        0x00002198:    000021d0    .!..    DCD    8656
        0x0000219c:    20000028    (..     DCD    536870952
        0x000021a0:    00000310    ....    DCD    784
        0x000021a4:    0000173c    <...    DCD    5948
    Region$$Table$$Limit

** Section #2 'ER_RW' (SHT_PROGBITS) [SHF_ALLOC + SHF_WRITE]
    Size   : 40 bytes (alignment 4)
    Address: 0x20000000


** Section #3 'ER_ZI' (SHT_NOBITS) [SHF_ALLOC + SHF_WRITE]
    Size   : 784 bytes (alignment 8)
    Address: 0x20000028


** Section #4 '.debug_abbrev' (SHT_PROGBITS)
    Size   : 1476 bytes


** Section #5 '.debug_frame' (SHT_PROGBITS)
    Size   : 2712 bytes


** Section #6 '.debug_info' (SHT_PROGBITS)
    Size   : 29672 bytes


** Section #7 '.debug_line' (SHT_PROGBITS)
    Size   : 11460 bytes


** Section #8 '.debug_loc' (SHT_PROGBITS)
    Size   : 4356 bytes


** Section #9 '.debug_macinfo' (SHT_PROGBITS)
    Size   : 154804 bytes


** Section #10 '.debug_pubnames' (SHT_PROGBITS)
    Size   : 2230 bytes


** Section #11 '.symtab' (SHT_SYMTAB)
    Size   : 7744 bytes (alignment 4)
    String table #12 '.strtab'
    Last local symbol no. 292


** Section #12 '.strtab' (SHT_STRTAB)
    Size   : 6088 bytes


** Section #13 '.note' (SHT_NOTE)
    Size   : 28 bytes (alignment 4)


** Section #14 '.comment' (SHT_PROGBITS)
    Size   : 13516 bytes


** Section #15 '.shstrtab' (SHT_STRTAB)
    Size   : 156 bytes


